 mexOMPMask

 Timestamp is 58907c33 (Tue Jan 31 13:59:47 2017)

 Preferred load address is 0000000180000000

 Start         Length     Name                   Class
 0001:00000000 00019ea4H .text                   CODE
 0001:00019eb0 000015c0H .text$x                 CODE
 0001:0001b470 0000010cH .text$yc                CODE
 0001:0001b580 00000055H .text$yd                CODE
 0002:00000000 00000340H .idata$5                DATA
 0002:00000340 00000008H .CRT$XCA                DATA
 0002:00000348 00000038H .CRT$XCU                DATA
 0002:00000380 00000008H .CRT$XCZ                DATA
 0002:00000388 00000008H .CRT$XIA                DATA
 0002:00000390 00000008H .CRT$XIAA               DATA
 0002:00000398 00000008H .CRT$XIC                DATA
 0002:000003a0 00000008H .CRT$XIZ                DATA
 0002:000003b0 000019c0H .rdata                  DATA
 0002:00001d70 000011e4H .rdata$r                DATA
 0002:00002f58 00000008H .rtc$IAA                DATA
 0002:00002f60 00000008H .rtc$IZZ                DATA
 0002:00002f68 00000008H .rtc$TAA                DATA
 0002:00002f70 00000008H .rtc$TZZ                DATA
 0002:00002f78 00001bd8H .xdata                  DATA
 0002:00004b50 00000078H .idata$2                DATA
 0002:00004bc8 00000014H .idata$3                DATA
 0002:00004be0 00000340H .idata$4                DATA
 0002:00004f20 000009f8H .idata$6                DATA
 0002:00005920 00000050H .edata                  DATA
 0003:00000000 00000530H .data                   DATA
 0003:00000530 00000088H .bss                    DATA
 0004:00000000 00001cbcH .pdata                  DATA

  Address         Publics by Value              Rva+Base               Lib:Object

 0000:00000000       ___safe_se_handler_table   0000000000000000     <absolute>
 0000:00000000       ___safe_se_handler_count   0000000000000000     <absolute>
 0000:00000000       __ImageBase                0000000180000000     <linker-defined>
 0001:00000000       mexFunction                0000000180001000 f   mexOMPMask.obj
 0001:000000a0       ?gettimeofday@@YAHPEAUtimeval@@PEAUtimezone@@@Z 00000001800010a0 f   mexOMPMask.obj
 0001:000001e0       ?cblas_transpose@@YAPEADW4CBLAS_TRANSPOSE@@@Z 00000001800011e0 f   mexOMPMask.obj
 0001:00000260       ?cblas_uplo@@YAPEADW4CBLAS_UPLO@@@Z 0000000180001260 f   mexOMPMask.obj
 0001:000002c0       ?cblas_diag@@YAPEADW4CBLAS_DIAG@@@Z 00000001800012c0 f   mexOMPMask.obj
 0001:00000320       ?cblas_side@@YAPEADW4CBLAS_SIDE@@@Z 0000000180001320 f   mexOMPMask.obj
 0001:00000380       ??0Timer@@QEAA@XZ          0000000180001380 f   mexOMPMask.obj
 0001:000003e0       ??1Timer@@QEAA@XZ          00000001800013e0 f   mexOMPMask.obj
 0001:00000420       ?checkSize@@YA_NPEBUmxArray_tag@@HH@Z 0000000180001420 f   mexOMPMask.obj
 0001:000004b0       ?super_flush@@YAXAEAV?$basic_ostream@DU?$char_traits@D@std@@@std@@@Z 00000001800014b0 f   mexOMPMask.obj
 0001:00000980       ??$?6DU?$char_traits@D@std@@V?$allocator@D@1@@std@@YAAEAV?$basic_ostream@DU?$char_traits@D@std@@@0@AEAV10@AEBV?$basic_string@DU?$char_traits@D@std@@V?$allocator@D@2@@0@@Z 0000000180001980 f i mexOMPMask.obj
 0001:00000d40       ??$?6U?$char_traits@D@std@@@std@@YAAEAV?$basic_ostream@DU?$char_traits@D@std@@@0@AEAV10@PEBD@Z 0000000180001d40 f i mexOMPMask.obj
 0001:00001100       ??$_Allocate@D@std@@YAPEAD_KPEAD@Z 0000000180002100 f i mexOMPMask.obj
 0001:00001150       ??$abs@M@@YAMM@Z           0000000180002150 f i mexOMPMask.obj
 0001:00001170       ??$abs@N@@YANN@Z           0000000180002170 f i mexOMPMask.obj
 0001:00001190       ?_Nextnode@?$_List_val@U?$_List_simple_types@_J@std@@@std@@SAAEAPEAU?$_List_node@_JPEAX@2@PEAU32@@Z 0000000180002190 f i mexOMPMask.obj
 0001:00001190       ??$forward@AEAPEAD@std@@YAAEAPEADAEAPEAD@Z 0000000180002190 f i mexOMPMask.obj
 0001:00001190       ??0?$allocator@D@std@@QEAA@XZ 0000000180002190 f i mexOMPMask.obj
 0001:00001190       ??$addressof@D@std@@YAPEADAEAD@Z 0000000180002190 f i mexOMPMask.obj
 0001:000011a0       ??$callFunction@M@@YAXQEAPEAUmxArray_tag@@QEAPEBU0@H@Z 00000001800021a0 f i mexOMPMask.obj
 0001:00001af0       ??$callFunction@N@@YAXQEAPEAUmxArray_tag@@QEAPEBU0@H@Z 0000000180002af0 f i mexOMPMask.obj
 0001:00002440       ??$cblas_axpy@M@@YAX_JMPEAM010@Z 0000000180003440 f i mexOMPMask.obj
 0001:00002490       ??$cblas_axpy@N@@YAX_JNPEAN010@Z 0000000180003490 f i mexOMPMask.obj
 0001:000024e0       ??$cblas_axpy@_J@@YAX_J0PEA_J010@Z 00000001800034e0 f i mexOMPMask.obj
 0001:00002550       ??$cblas_axpy@_N@@YAX_J_NPEA_N020@Z 0000000180003550 f i mexOMPMask.obj
 0001:000025b0       ??$cblas_copy@M@@YAX_JPEAM010@Z 00000001800035b0 f i mexOMPMask.obj
 0001:000025f0       ??$cblas_copy@N@@YAX_JPEAN010@Z 00000001800035f0 f i mexOMPMask.obj
 0001:00002630       ??$cblas_copy@_J@@YAX_JPEA_J010@Z 0000000180003630 f i mexOMPMask.obj
 0001:000026a0       ??$cblas_copy@_N@@YAX_JPEA_N010@Z 00000001800036a0 f i mexOMPMask.obj
 0001:00002710       ??$cblas_dot@M@@YAM_JPEAM010@Z 0000000180003710 f i mexOMPMask.obj
 0001:00002750       ??$cblas_dot@N@@YAN_JPEAN010@Z 0000000180003750 f i mexOMPMask.obj
 0001:00002790       ??$cblas_dot@_J@@YA_J_JPEA_J010@Z 0000000180003790 f i mexOMPMask.obj
 0001:00002830       ??$cblas_dot@_N@@YA_N_JPEA_N010@Z 0000000180003830 f i mexOMPMask.obj
 0001:00002850       ??$cblas_gemm@M@@YAXW4CBLAS_ORDER@@W4CBLAS_TRANSPOSE@@1_J22MPEAM232M32@Z 0000000180003850 f i mexOMPMask.obj
 0001:00002930       ??$cblas_gemm@N@@YAXW4CBLAS_ORDER@@W4CBLAS_TRANSPOSE@@1_J22NPEAN232N32@Z 0000000180003930 f i mexOMPMask.obj
 0001:00002a10       ??$cblas_gemv@M@@YAXW4CBLAS_ORDER@@W4CBLAS_TRANSPOSE@@_J2MPEAM232M32@Z 0000000180003a10 f i mexOMPMask.obj
 0001:00002ab0       ??$cblas_gemv@N@@YAXW4CBLAS_ORDER@@W4CBLAS_TRANSPOSE@@_J2NPEAN232N32@Z 0000000180003ab0 f i mexOMPMask.obj
 0001:00002b50       ??$cblas_gemv@_J@@YAXW4CBLAS_ORDER@@W4CBLAS_TRANSPOSE@@_J22PEA_J232232@Z 0000000180003b50 f i mexOMPMask.obj
 0001:00002b50       ??$cblas_gemv@_N@@YAXW4CBLAS_ORDER@@W4CBLAS_TRANSPOSE@@_J2_NPEA_N242342@Z 0000000180003b50 f i mexOMPMask.obj
 0001:00002b70       ??$cblas_iamax@M@@YA_J_JPEAM0@Z 0000000180003b70 f i mexOMPMask.obj
 0001:00002ba0       ??$cblas_iamax@N@@YA_J_JPEAN0@Z 0000000180003ba0 f i mexOMPMask.obj
 0001:00002bd0       ??$cblas_scal@M@@YAX_JMPEAM0@Z 0000000180003bd0 f i mexOMPMask.obj
 0001:00002c10       ??$cblas_scal@N@@YAX_JNPEAN0@Z 0000000180003c10 f i mexOMPMask.obj
 0001:00002c50       ??$cblas_scal@_J@@YAX_J0PEA_J0@Z 0000000180003c50 f i mexOMPMask.obj
 0001:00002cc0       ??$cblas_scal@_N@@YAX_J_NPEA_N0@Z 0000000180003cc0 f i mexOMPMask.obj
 0001:00002ce0       ??$cblas_syrk@M@@YAXW4CBLAS_ORDER@@W4CBLAS_UPLO@@W4CBLAS_TRANSPOSE@@_J3MPEAM3M43@Z 0000000180003ce0 f i mexOMPMask.obj
 0001:00002d90       ??$cblas_syrk@N@@YAXW4CBLAS_ORDER@@W4CBLAS_UPLO@@W4CBLAS_TRANSPOSE@@_J3NPEAN3N43@Z 0000000180003d90 f i mexOMPMask.obj
 0001:00002e40       ??$cblas_gemm@_N@@YAXW4CBLAS_ORDER@@W4CBLAS_TRANSPOSE@@1_J22_NPEA_N242342@Z 0000000180003e40 f i mexOMPMask.obj
 0001:00002e40       ??$cblas_gemm@_J@@YAXW4CBLAS_ORDER@@W4CBLAS_TRANSPOSE@@1_J222PEA_J232232@Z 0000000180003e40 f i mexOMPMask.obj
 0001:00002e40       ??$cblas_syrk@_J@@YAXW4CBLAS_ORDER@@W4CBLAS_UPLO@@W4CBLAS_TRANSPOSE@@_J33PEA_J3343@Z 0000000180003e40 f i mexOMPMask.obj
 0001:00002e40       ??$cblas_syrk@_N@@YAXW4CBLAS_ORDER@@W4CBLAS_UPLO@@W4CBLAS_TRANSPOSE@@_J3_NPEA_N3453@Z 0000000180003e40 f i mexOMPMask.obj
 0001:00002e60       ??$cblas_trmv@M@@YAXW4CBLAS_ORDER@@W4CBLAS_UPLO@@W4CBLAS_TRANSPOSE@@W4CBLAS_DIAG@@_JPEAM454@Z 0000000180003e60 f i mexOMPMask.obj
 0001:00002f00       ??$cblas_trmv@N@@YAXW4CBLAS_ORDER@@W4CBLAS_UPLO@@W4CBLAS_TRANSPOSE@@W4CBLAS_DIAG@@_JPEAN454@Z 0000000180003f00 f i mexOMPMask.obj
 0001:00002fa0       ??$construct@PEADAEAPEAD@?$_Wrap_alloc@V?$allocator@D@std@@@std@@QEAAXPEAPEADAEAPEAD@Z 0000000180003fa0 f i mexOMPMask.obj
 0001:00002fe0       ??$construct@PEADAEAPEAD@?$allocator@D@std@@QEAAXPEAPEADAEAPEAD@Z 0000000180003fe0 f i mexOMPMask.obj
 0001:00003060       ??$construct@PEADAEAPEAD@?$allocator_traits@V?$allocator@D@std@@@std@@SAXAEAV?$allocator@D@1@PEAPEADAEAPEAD@Z 0000000180004060 f i mexOMPMask.obj
 0001:000030a0       ??$convertSpMatrix@M_J@@YAXAEAPEAUmxArray_tag@@_J111PEBMPEB_J3@Z 00000001800040a0 f i mexOMPMask.obj
 0001:00003200       ??$convertSpMatrix@N_J@@YAXAEAPEAUmxArray_tag@@_J111PEBNPEB_J3@Z 0000000180004200 f i mexOMPMask.obj
 0001:00003360       ??$coreORMP@M@@YAXAEAV?$Vector@M@@00AEAV?$Matrix@M@@1110AEBV?$AbstractMatrix@M@@AEAV?$Vector@_J@@0AEAMPEBMPEBH5PEAM@Z 0000000180004360 f i mexOMPMask.obj
 0001:00003c90       ??$coreORMP@N@@YAXAEAV?$Vector@N@@00AEAV?$Matrix@N@@1110AEBV?$AbstractMatrix@N@@AEAV?$Vector@_J@@0AEANPEBNPEBH5PEAN@Z 0000000180004c90 f i mexOMPMask.obj
 0001:000045c0       ??$createMatrix@M@@YAPEAUmxArray_tag@@HH@Z 00000001800055c0 f i mexOMPMask.obj
 0001:000045f0       ??$createMatrix@N@@YAPEAUmxArray_tag@@HH@Z 00000001800055f0 f i mexOMPMask.obj
 0001:00004620       ??$destroy@PEAD@?$_Wrap_alloc@V?$allocator@D@std@@@std@@QEAAXPEAPEAD@Z 0000000180005620 f i mexOMPMask.obj
 0001:00004650       ??$destroy@PEAD@?$allocator_traits@V?$allocator@D@std@@@std@@SAXAEAV?$allocator@D@1@PEAPEAD@Z 0000000180005650 f i mexOMPMask.obj
 0001:00004680       ??$getScalarStructDef@H@@YAHPEBUmxArray_tag@@PEBDH@Z 0000000180005680 f i mexOMPMask.obj
 0001:000046e0       ??$mexCheckType@H@@YA_NPEBUmxArray_tag@@@Z 00000001800056e0 f i mexOMPMask.obj
 0001:00004730       ??$mexCheckType@M@@YA_NPEBUmxArray_tag@@@Z 0000000180005730 f i mexOMPMask.obj
 0001:00004780       ??$mexCheckType@N@@YA_NPEBUmxArray_tag@@@Z 0000000180005780 f i mexOMPMask.obj
 0001:000047d0       ??$mexCheckType@_N@@YA_NPEBUmxArray_tag@@@Z 00000001800057d0 f i mexOMPMask.obj
 0001:00004820       ??$omp_mask@M@@YAXAEBV?$Matrix@M@@0AEAV?$SpMatrix@M@@AEBV?$Matrix@_N@@PEBHPEBM4_N55HPEAV0@@Z 0000000180005820 f i mexOMPMask.obj
 0001:000067c0       ??$omp_mask@N@@YAXAEBV?$Matrix@N@@0AEAV?$SpMatrix@N@@AEBV?$Matrix@_N@@PEBHPEBN4_N55HPEAV0@@Z 00000001800077c0 f i mexOMPMask.obj
 0001:00008760       ??$vDiv@M@@YAX_JPEAM11@Z   0000000180009760 f i mexOMPMask.obj
 0001:000087d0       ??$vDiv@N@@YAX_JPEAN11@Z   00000001800097d0 f i mexOMPMask.obj
 0001:00008840       ??$vSqr@M@@YAX_JPEAM1@Z    0000000180009840 f i mexOMPMask.obj
 0001:000088b0       ??$vSqr@N@@YAX_JPEAN1@Z    00000001800098b0 f i mexOMPMask.obj
 0001:00008920       ??$vSub@M@@YAX_JPEAM11@Z   0000000180009920 f i mexOMPMask.obj
 0001:00008990       ??$vSub@N@@YAX_JPEAN11@Z   0000000180009990 f i mexOMPMask.obj
 0001:00008a00       ??0?$AbstractMatrix@M@@QEAA@XZ 0000000180009a00 f i mexOMPMask.obj
 0001:00008a20       ??0?$AbstractMatrix@N@@QEAA@XZ 0000000180009a20 f i mexOMPMask.obj
 0001:00008a40       ??0?$AbstractMatrix@_J@@QEAA@XZ 0000000180009a40 f i mexOMPMask.obj
 0001:00008a60       ??0?$AbstractMatrix@_N@@QEAA@XZ 0000000180009a60 f i mexOMPMask.obj
 0001:00008a80       ??0?$AbstractMatrixB@M@@QEAA@XZ 0000000180009a80 f i mexOMPMask.obj
 0001:00008aa0       ??0?$AbstractMatrixB@N@@QEAA@XZ 0000000180009aa0 f i mexOMPMask.obj
 0001:00008ac0       ??0?$AbstractMatrixB@_J@@QEAA@XZ 0000000180009ac0 f i mexOMPMask.obj
 0001:00008ae0       ??0?$AbstractMatrixB@_N@@QEAA@XZ 0000000180009ae0 f i mexOMPMask.obj
 0001:00008b00       ??0?$Data@M@@QEAA@XZ       0000000180009b00 f i mexOMPMask.obj
 0001:00008b20       ??0?$Data@N@@QEAA@XZ       0000000180009b20 f i mexOMPMask.obj
 0001:00008b40       ??0?$Data@_J@@QEAA@XZ      0000000180009b40 f i mexOMPMask.obj
 0001:00008b60       ??0?$Data@_N@@QEAA@XZ      0000000180009b60 f i mexOMPMask.obj
 0001:00008b80       ??0?$Matrix@M@@QEAA@PEAM_J1@Z 0000000180009b80 f i mexOMPMask.obj
 0001:00008c30       ??0?$Matrix@M@@QEAA@XZ     0000000180009c30 f i mexOMPMask.obj
 0001:00008cd0       ??0?$Matrix@M@@QEAA@_J0@Z  0000000180009cd0 f i mexOMPMask.obj
 0001:00008dd0       ??0?$Matrix@N@@QEAA@PEAN_J1@Z 0000000180009dd0 f i mexOMPMask.obj
 0001:00008e80       ??0?$Matrix@N@@QEAA@XZ     0000000180009e80 f i mexOMPMask.obj
 0001:00008f20       ??0?$Matrix@N@@QEAA@_J0@Z  0000000180009f20 f i mexOMPMask.obj
 0001:00009020       ??0?$Matrix@_J@@QEAA@_J0@Z 000000018000a020 f i mexOMPMask.obj
 0001:00009120       ??0?$Matrix@_N@@QEAA@PEA_N_J1@Z 000000018000a120 f i mexOMPMask.obj
 0001:000091d0       ??0?$ProdMatrix@M@@QEAA@AEBV?$Matrix@M@@_N@Z 000000018000a1d0 f i mexOMPMask.obj
 0001:00009280       ??0?$ProdMatrix@M@@QEAA@XZ 000000018000a280 f i mexOMPMask.obj
 0001:00009310       ??0?$ProdMatrix@N@@QEAA@AEBV?$Matrix@N@@_N@Z 000000018000a310 f i mexOMPMask.obj
 0001:000093c0       ??0?$ProdMatrix@N@@QEAA@XZ 000000018000a3c0 f i mexOMPMask.obj
 0001:00009450       ??0?$SpMatrix@M@@QEAA@XZ   000000018000a450 f i mexOMPMask.obj
 0001:00009510       ??0?$SpMatrix@N@@QEAA@XZ   000000018000a510 f i mexOMPMask.obj
 0001:000095d0       ??0?$SpVector@_N@@QEAA@XZ  000000018000a5d0 f i mexOMPMask.obj
 0001:000095d0       ??0?$SpVector@N@@QEAA@XZ   000000018000a5d0 f i mexOMPMask.obj
 0001:000095d0       ??0?$SpVector@M@@QEAA@XZ   000000018000a5d0 f i mexOMPMask.obj
 0001:000095d0       ??0?$SpVector@_J@@QEAA@XZ  000000018000a5d0 f i mexOMPMask.obj
 0001:00009620       ??0?$Vector@H@@QEAA@PEAH_J@Z 000000018000a620 f i mexOMPMask.obj
 0001:00009670       ??0?$Vector@M@@QEAA@PEAM_J@Z 000000018000a670 f i mexOMPMask.obj
 0001:000096c0       ??0?$Vector@M@@QEAA@XZ     000000018000a6c0 f i mexOMPMask.obj
 0001:00009700       ??0?$Vector@M@@QEAA@_J@Z   000000018000a700 f i mexOMPMask.obj
 0001:00009780       ??0?$Vector@N@@QEAA@PEAN_J@Z 000000018000a780 f i mexOMPMask.obj
 0001:000097d0       ??0?$Vector@N@@QEAA@XZ     000000018000a7d0 f i mexOMPMask.obj
 0001:00009810       ??0?$Vector@N@@QEAA@_J@Z   000000018000a810 f i mexOMPMask.obj
 0001:00009890       ??0?$Vector@_J@@QEAA@XZ    000000018000a890 f i mexOMPMask.obj
 0001:000098d0       ??0?$Vector@_J@@QEAA@_J@Z  000000018000a8d0 f i mexOMPMask.obj
 0001:00009950       ??0?$Vector@_N@@QEAA@XZ    000000018000a950 f i mexOMPMask.obj
 0001:00009990       ??0?$Vector@_N@@QEAA@_J@Z  000000018000a990 f i mexOMPMask.obj
 0001:000099f0       ??0?$_List_const_iterator@V?$_List_val@U?$_List_simple_types@_J@std@@@std@@@std@@QEAA@PEAU?$_List_node@_JPEAX@1@PEBV?$_List_val@U?$_List_simple_types@_J@std@@@1@@Z 000000018000a9f0 f i mexOMPMask.obj
 0001:00009a30       ??0?$_List_unchecked_const_iterator@V?$_List_val@U?$_List_simple_types@_J@std@@@std@@U_Iterator_base0@2@@std@@QEAA@PEAU?$_List_node@_JPEAX@1@PEBV?$_List_val@U?$_List_simple_types@_J@std@@@1@@Z 000000018000aa30 f i mexOMPMask.obj
 0001:00009a70       ??0?$_String_alloc@$0A@U?$_String_base_types@DV?$allocator@D@std@@@std@@@std@@QEAA@AEBV?$allocator@D@1@@Z 000000018000aa70 f i mexOMPMask.obj
 0001:00009aa0       ??0?$_String_val@U?$_Simple_types@D@std@@@std@@QEAA@XZ 000000018000aaa0 f i mexOMPMask.obj
 0001:00009ad0       ??0?$_Wrap_alloc@V?$allocator@D@std@@@std@@QEAA@XZ 000000018000aad0 f i mexOMPMask.obj
 0001:00009af0       ??0?$basic_string@DU?$char_traits@D@std@@V?$allocator@D@2@@std@@QEAA@PEBD@Z 000000018000aaf0 f i mexOMPMask.obj
 0001:00009b40       ??0_Generic_error_category@std@@QEAA@XZ 000000018000ab40 f i mexOMPMask.obj
 0001:00009b70       ??0_Iostream_error_category@std@@QEAA@XZ 000000018000ab70 f i mexOMPMask.obj
 0001:00009ba0       ??0_Sentry_base@?$basic_ostream@DU?$char_traits@D@std@@@std@@QEAA@AEAV12@@Z 000000018000aba0 f i mexOMPMask.obj
 0001:00009c40       ??0_System_error_category@std@@QEAA@XZ 000000018000ac40 f i mexOMPMask.obj
 0001:00009c70       ??0error_category@std@@QEAA@XZ 000000018000ac70 f i mexOMPMask.obj
 0001:00009c90       ??0error_condition@std@@QEAA@HAEBVerror_category@1@@Z 000000018000ac90 f i mexOMPMask.obj
 0001:00009cc0       ??0sentry@?$basic_ostream@DU?$char_traits@D@std@@@std@@QEAA@AEAV12@@Z 000000018000acc0 f i mexOMPMask.obj
 0001:00009d90       ??1?$AbstractMatrix@M@@UEAA@XZ 000000018000ad90 f i mexOMPMask.obj
 0001:00009db0       ??1?$AbstractMatrix@N@@UEAA@XZ 000000018000adb0 f i mexOMPMask.obj
 0001:00009dd0       ??1?$AbstractMatrix@_J@@UEAA@XZ 000000018000add0 f i mexOMPMask.obj
 0001:00009df0       ??1?$AbstractMatrix@_N@@UEAA@XZ 000000018000adf0 f i mexOMPMask.obj
 0001:00009e10       ??1?$AbstractMatrixB@M@@UEAA@XZ 000000018000ae10 f i mexOMPMask.obj
 0001:00009e30       ??1?$AbstractMatrixB@N@@UEAA@XZ 000000018000ae30 f i mexOMPMask.obj
 0001:00009e50       ??1?$AbstractMatrixB@_J@@UEAA@XZ 000000018000ae50 f i mexOMPMask.obj
 0001:00009e70       ??1?$AbstractMatrixB@_N@@UEAA@XZ 000000018000ae70 f i mexOMPMask.obj
 0001:00009e90       ??1?$Data@M@@UEAA@XZ       000000018000ae90 f i mexOMPMask.obj
 0001:00009eb0       ??1?$Data@N@@UEAA@XZ       000000018000aeb0 f i mexOMPMask.obj
 0001:00009ed0       ??1?$Data@_J@@UEAA@XZ      000000018000aed0 f i mexOMPMask.obj
 0001:00009ef0       ??1?$Data@_N@@UEAA@XZ      000000018000aef0 f i mexOMPMask.obj
 0001:00009f10       ??1?$Matrix@M@@UEAA@XZ     000000018000af10 f i mexOMPMask.obj
 0001:00009f90       ??1?$Matrix@N@@UEAA@XZ     000000018000af90 f i mexOMPMask.obj
 0001:0000a010       ??1?$Matrix@_J@@UEAA@XZ    000000018000b010 f i mexOMPMask.obj
 0001:0000a090       ??1?$Matrix@_N@@UEAA@XZ    000000018000b090 f i mexOMPMask.obj
 0001:0000a110       ??1?$ProdMatrix@M@@UEAA@XZ 000000018000b110 f i mexOMPMask.obj
 0001:0000a190       ??1?$ProdMatrix@N@@UEAA@XZ 000000018000b190 f i mexOMPMask.obj
 0001:0000a210       ??1?$SpMatrix@M@@UEAA@XZ   000000018000b210 f i mexOMPMask.obj
 0001:0000a270       ??1?$SpMatrix@N@@UEAA@XZ   000000018000b270 f i mexOMPMask.obj
 0001:0000a2d0       ??1?$SpVector@_N@@QEAA@XZ  000000018000b2d0 f i mexOMPMask.obj
 0001:0000a2d0       ??1?$SpVector@_J@@QEAA@XZ  000000018000b2d0 f i mexOMPMask.obj
 0001:0000a2d0       ??1?$SpVector@M@@QEAA@XZ   000000018000b2d0 f i mexOMPMask.obj
 0001:0000a2d0       ??1?$SpVector@N@@QEAA@XZ   000000018000b2d0 f i mexOMPMask.obj
 0001:0000a2f0       ??1?$Vector@H@@UEAA@XZ     000000018000b2f0 f i mexOMPMask.obj
 0001:0000a320       ??1?$Vector@M@@UEAA@XZ     000000018000b320 f i mexOMPMask.obj
 0001:0000a350       ??1?$Vector@N@@UEAA@XZ     000000018000b350 f i mexOMPMask.obj
 0001:0000a380       ??1?$Vector@_J@@UEAA@XZ    000000018000b380 f i mexOMPMask.obj
 0001:0000a3b0       ??1?$Vector@_N@@UEAA@XZ    000000018000b3b0 f i mexOMPMask.obj
 0001:0000a3e0       ??1_Generic_error_category@std@@UEAA@XZ 000000018000b3e0 f i mexOMPMask.obj
 0001:0000a400       ??1_Sentry_base@?$basic_ostream@DU?$char_traits@D@std@@@std@@QEAA@XZ 000000018000b400 f i mexOMPMask.obj
 0001:0000a490       ??1_Iostream_error_category@std@@UEAA@XZ 000000018000b490 f i mexOMPMask.obj
 0001:0000a490       ??1_System_error_category@std@@UEAA@XZ 000000018000b490 f i mexOMPMask.obj
 0001:0000a4b0       ??1error_category@std@@UEAA@XZ 000000018000b4b0 f i mexOMPMask.obj
 0001:0000a4d0       ??1sentry@?$basic_ostream@DU?$char_traits@D@std@@@std@@QEAA@XZ 000000018000b4d0 f i mexOMPMask.obj
 0001:0000a510       ??2@YAPEAX_KPEAX@Z         000000018000b510 f i mexOMPMask.obj
 0001:0000a520       ??8?$_List_const_iterator@V?$_List_val@U?$_List_simple_types@_J@std@@@std@@@std@@QEBA_NAEBV01@@Z 000000018000b520 f i mexOMPMask.obj
 0001:0000a560       ??8error_category@std@@QEBA_NAEBV01@@Z 000000018000b560 f i mexOMPMask.obj
 0001:0000a5a0       ??8error_condition@std@@QEBA_NAEBV01@@Z 000000018000b5a0 f i mexOMPMask.obj
 0001:0000a620       ??9?$_List_const_iterator@V?$_List_val@U?$_List_simple_types@_J@std@@@std@@@std@@QEBA_NAEBV01@@Z 000000018000b620 f i mexOMPMask.obj
 0001:0000a660       ??A?$Matrix@M@@QEAAAEAM_J@Z 000000018000b660 f i mexOMPMask.obj
 0001:0000a680       ??A?$Matrix@M@@UEBAM_J@Z   000000018000b680 f i mexOMPMask.obj
 0001:0000a6a0       ??A?$Matrix@N@@QEAAAEAN_J@Z 000000018000b6a0 f i mexOMPMask.obj
 0001:0000a6c0       ??A?$Matrix@N@@UEBAN_J@Z   000000018000b6c0 f i mexOMPMask.obj
 0001:0000a6e0       ??A?$Matrix@_J@@UEBA_J_J@Z 000000018000b6e0 f i mexOMPMask.obj
 0001:0000a700       ??A?$Matrix@_N@@UEBA_N_J@Z 000000018000b700 f i mexOMPMask.obj
 0001:0000a720       ??A?$SpMatrix@M@@UEBAM_J@Z 000000018000b720 f i mexOMPMask.obj
 0001:0000a7f0       ??A?$SpMatrix@N@@UEBAN_J@Z 000000018000b7f0 f i mexOMPMask.obj
 0001:0000a8c0       ??A?$Vector@M@@QEAAAEAM_J@Z 000000018000b8c0 f i mexOMPMask.obj
 0001:0000a8e0       ??A?$Vector@M@@QEBAM_J@Z   000000018000b8e0 f i mexOMPMask.obj
 0001:0000a900       ??A?$Vector@_J@@QEAAAEA_J_J@Z 000000018000b900 f i mexOMPMask.obj
 0001:0000a900       ??A?$Vector@N@@QEAAAEAN_J@Z 000000018000b900 f i mexOMPMask.obj
 0001:0000a920       ??A?$Vector@N@@QEBAN_J@Z   000000018000b920 f i mexOMPMask.obj
 0001:0000a940       ??A?$Vector@_N@@QEAAAEA_N_J@Z 000000018000b940 f i mexOMPMask.obj
 0001:0000a960       ??A?$Vector@_N@@QEBA_N_J@Z 000000018000b960 f i mexOMPMask.obj
 0001:0000a980       ??A?$vector@V?$list@_JV?$allocator@_J@std@@@std@@V?$allocator@V?$list@_JV?$allocator@_J@std@@@std@@@2@@std@@QEBAAEBV?$list@_JV?$allocator@_J@std@@@1@_K@Z 000000018000b980 f i mexOMPMask.obj
 0001:0000a9a0       ??Bsentry@?$basic_ostream@DU?$char_traits@D@std@@@std@@QEBAPEQ?$_Bool_struct@V?$basic_ostream@DU?$char_traits@D@std@@@std@@@2@HXZ 000000018000b9a0 f i mexOMPMask.obj
 0001:0000a9d0       ??D?$_List_const_iterator@V?$_List_val@U?$_List_simple_types@_J@std@@@std@@@std@@QEBAAEB_JXZ 000000018000b9d0 f i mexOMPMask.obj
 0001:0000a9f0       ??E?$_List_const_iterator@V?$_List_val@U?$_List_simple_types@_J@std@@@std@@@std@@QEAAAEAV01@XZ 000000018000b9f0 f i mexOMPMask.obj
 0001:0000aa20       ??R?$Matrix@M@@QEAAAEAM_J0@Z 000000018000ba20 f i mexOMPMask.obj
 0001:0000aa60       ??R?$Matrix@M@@UEBAM_J0@Z  000000018000ba60 f i mexOMPMask.obj
 0001:0000aaa0       ??R?$Matrix@N@@QEAAAEAN_J0@Z 000000018000baa0 f i mexOMPMask.obj
 0001:0000aae0       ??R?$Matrix@N@@UEBAN_J0@Z  000000018000bae0 f i mexOMPMask.obj
 0001:0000ab20       ??R?$Matrix@_J@@UEBA_J_J0@Z 000000018000bb20 f i mexOMPMask.obj
 0001:0000ab60       ??R?$Matrix@_N@@UEBA_N_J0@Z 000000018000bb60 f i mexOMPMask.obj
 0001:0000aba0       ??R?$ProdMatrix@M@@UEBAM_J0@Z 000000018000bba0 f i mexOMPMask.obj
 0001:0000ac90       ??R?$ProdMatrix@N@@UEBAN_J0@Z 000000018000bc90 f i mexOMPMask.obj
 0001:0000ad80       ??_E?$Matrix@M@@UEAAPEAXI@Z 000000018000bd80 f i mexOMPMask.obj
 0001:0000ae08       ??_E?$Matrix@M@@W7EAAPEAXI@Z 000000018000be08 f i mexOMPMask.obj
 0001:0000ae14       ??_E?$Matrix@M@@WBA@EAAPEAXI@Z 000000018000be14 f i mexOMPMask.obj
 0001:0000ae20       ??_E?$Matrix@N@@UEAAPEAXI@Z 000000018000be20 f i mexOMPMask.obj
 0001:0000aea8       ??_E?$Matrix@N@@W7EAAPEAXI@Z 000000018000bea8 f i mexOMPMask.obj
 0001:0000aeb4       ??_E?$Matrix@N@@WBA@EAAPEAXI@Z 000000018000beb4 f i mexOMPMask.obj
 0001:0000aec0       ??_E?$Matrix@_J@@W7EAAPEAXI@Z 000000018000bec0 f i mexOMPMask.obj
 0001:0000aecc       ??_E?$Matrix@_J@@WBA@EAAPEAXI@Z 000000018000becc f i mexOMPMask.obj
 0001:0000aed8       ??_E?$Matrix@_N@@W7EAAPEAXI@Z 000000018000bed8 f i mexOMPMask.obj
 0001:0000aee4       ??_E?$Matrix@_N@@WBA@EAAPEAXI@Z 000000018000bee4 f i mexOMPMask.obj
 0001:0000aef0       ??_E?$ProdMatrix@M@@UEAAPEAXI@Z 000000018000bef0 f i mexOMPMask.obj
 0001:0000af80       ??_E?$ProdMatrix@N@@UEAAPEAXI@Z 000000018000bf80 f i mexOMPMask.obj
 0001:0000b008       ??_E?$SpMatrix@M@@W7EAAPEAXI@Z 000000018000c008 f i mexOMPMask.obj
 0001:0000b014       ??_E?$SpMatrix@N@@W7EAAPEAXI@Z 000000018000c014 f i mexOMPMask.obj
 0001:0000b020       ??_E?$Vector@M@@UEAAPEAXI@Z 000000018000c020 f i mexOMPMask.obj
 0001:0000b0b0       ??_E?$Vector@N@@UEAAPEAXI@Z 000000018000c0b0 f i mexOMPMask.obj
 0001:0000b140       ??_E?$AbstractMatrix@M@@UEAAPEAXI@Z 000000018000c140 f i mexOMPMask.obj
 0001:0000b140       ??_G?$AbstractMatrix@M@@UEAAPEAXI@Z 000000018000c140 f i mexOMPMask.obj
 0001:0000b180       ??_G?$AbstractMatrix@N@@UEAAPEAXI@Z 000000018000c180 f i mexOMPMask.obj
 0001:0000b180       ??_E?$AbstractMatrix@N@@UEAAPEAXI@Z 000000018000c180 f i mexOMPMask.obj
 0001:0000b1c0       ??_G?$AbstractMatrix@_J@@UEAAPEAXI@Z 000000018000c1c0 f i mexOMPMask.obj
 0001:0000b1c0       ??_E?$AbstractMatrix@_J@@UEAAPEAXI@Z 000000018000c1c0 f i mexOMPMask.obj
 0001:0000b200       ??_G?$AbstractMatrix@_N@@UEAAPEAXI@Z 000000018000c200 f i mexOMPMask.obj
 0001:0000b200       ??_E?$AbstractMatrix@_N@@UEAAPEAXI@Z 000000018000c200 f i mexOMPMask.obj
 0001:0000b240       ??_E?$AbstractMatrixB@M@@UEAAPEAXI@Z 000000018000c240 f i mexOMPMask.obj
 0001:0000b240       ??_G?$AbstractMatrixB@M@@UEAAPEAXI@Z 000000018000c240 f i mexOMPMask.obj
 0001:0000b280       ??_G?$AbstractMatrixB@N@@UEAAPEAXI@Z 000000018000c280 f i mexOMPMask.obj
 0001:0000b280       ??_E?$AbstractMatrixB@N@@UEAAPEAXI@Z 000000018000c280 f i mexOMPMask.obj
 0001:0000b2c0       ??_E?$AbstractMatrixB@_J@@UEAAPEAXI@Z 000000018000c2c0 f i mexOMPMask.obj
 0001:0000b2c0       ??_G?$AbstractMatrixB@_J@@UEAAPEAXI@Z 000000018000c2c0 f i mexOMPMask.obj
 0001:0000b300       ??_G?$AbstractMatrixB@_N@@UEAAPEAXI@Z 000000018000c300 f i mexOMPMask.obj
 0001:0000b300       ??_E?$AbstractMatrixB@_N@@UEAAPEAXI@Z 000000018000c300 f i mexOMPMask.obj
 0001:0000b340       ??_E?$Data@M@@UEAAPEAXI@Z  000000018000c340 f i mexOMPMask.obj
 0001:0000b340       ??_G?$Data@M@@UEAAPEAXI@Z  000000018000c340 f i mexOMPMask.obj
 0001:0000b380       ??_G?$Data@N@@UEAAPEAXI@Z  000000018000c380 f i mexOMPMask.obj
 0001:0000b380       ??_E?$Data@N@@UEAAPEAXI@Z  000000018000c380 f i mexOMPMask.obj
 0001:0000b3c0       ??_E?$Data@_J@@UEAAPEAXI@Z 000000018000c3c0 f i mexOMPMask.obj
 0001:0000b3c0       ??_G?$Data@_J@@UEAAPEAXI@Z 000000018000c3c0 f i mexOMPMask.obj
 0001:0000b400       ??_E?$Data@_N@@UEAAPEAXI@Z 000000018000c400 f i mexOMPMask.obj
 0001:0000b400       ??_G?$Data@_N@@UEAAPEAXI@Z 000000018000c400 f i mexOMPMask.obj
 0001:0000b440       ??_E?$Matrix@_J@@UEAAPEAXI@Z 000000018000c440 f i mexOMPMask.obj
 0001:0000b440       ??_G?$Matrix@_J@@UEAAPEAXI@Z 000000018000c440 f i mexOMPMask.obj
 0001:0000b480       ??_G?$Matrix@_N@@UEAAPEAXI@Z 000000018000c480 f i mexOMPMask.obj
 0001:0000b480       ??_E?$Matrix@_N@@UEAAPEAXI@Z 000000018000c480 f i mexOMPMask.obj
 0001:0000b4c0       ??_G?$SpMatrix@M@@UEAAPEAXI@Z 000000018000c4c0 f i mexOMPMask.obj
 0001:0000b4c0       ??_E?$SpMatrix@M@@UEAAPEAXI@Z 000000018000c4c0 f i mexOMPMask.obj
 0001:0000b500       ??_E?$SpMatrix@N@@UEAAPEAXI@Z 000000018000c500 f i mexOMPMask.obj
 0001:0000b500       ??_G?$SpMatrix@N@@UEAAPEAXI@Z 000000018000c500 f i mexOMPMask.obj
 0001:0000b540       ??_E?$Vector@H@@UEAAPEAXI@Z 000000018000c540 f i mexOMPMask.obj
 0001:0000b540       ??_G?$Vector@H@@UEAAPEAXI@Z 000000018000c540 f i mexOMPMask.obj
 0001:0000b580       ??_G?$Vector@_J@@UEAAPEAXI@Z 000000018000c580 f i mexOMPMask.obj
 0001:0000b580       ??_E?$Vector@_J@@UEAAPEAXI@Z 000000018000c580 f i mexOMPMask.obj
 0001:0000b5c0       ??_G?$Vector@_N@@UEAAPEAXI@Z 000000018000c5c0 f i mexOMPMask.obj
 0001:0000b5c0       ??_E?$Vector@_N@@UEAAPEAXI@Z 000000018000c5c0 f i mexOMPMask.obj
 0001:0000b600       ??_E_Generic_error_category@std@@UEAAPEAXI@Z 000000018000c600 f i mexOMPMask.obj
 0001:0000b600       ??_G_Generic_error_category@std@@UEAAPEAXI@Z 000000018000c600 f i mexOMPMask.obj
 0001:0000b640       ??_E_Iostream_error_category@std@@UEAAPEAXI@Z 000000018000c640 f i mexOMPMask.obj
 0001:0000b640       ??_G_Iostream_error_category@std@@UEAAPEAXI@Z 000000018000c640 f i mexOMPMask.obj
 0001:0000b640       ??_E_System_error_category@std@@UEAAPEAXI@Z 000000018000c640 f i mexOMPMask.obj
 0001:0000b640       ??_G_System_error_category@std@@UEAAPEAXI@Z 000000018000c640 f i mexOMPMask.obj
 0001:0000b680       ??_Gerror_category@std@@UEAAPEAXI@Z 000000018000c680 f i mexOMPMask.obj
 0001:0000b680       ??_Eerror_category@std@@UEAAPEAXI@Z 000000018000c680 f i mexOMPMask.obj
 0001:0000b6c0       ?V@?$Matrix@M@@UEBA_JXZ    000000018000c6c0 f i mexOMPMask.obj
 0001:0000b6c0       ?V@?$Matrix@_J@@UEBA_JXZ   000000018000c6c0 f i mexOMPMask.obj
 0001:0000b6c0       ?V@?$Matrix@_N@@UEBA_JXZ   000000018000c6c0 f i mexOMPMask.obj
 0001:0000b6c0       ?V@?$SpMatrix@N@@UEBA_JXZ  000000018000c6c0 f i mexOMPMask.obj
 0001:0000b6c0       ?V@?$Matrix@N@@UEBA_JXZ    000000018000c6c0 f i mexOMPMask.obj
 0001:0000b6c0       ?V@?$SpMatrix@M@@UEBA_JXZ  000000018000c6c0 f i mexOMPMask.obj
 0001:0000b6d0       ?X@?$Matrix@N@@QEBAPEBNXZ  000000018000c6d0 f i mexOMPMask.obj
 0001:0000b6d0       ?rawX@?$Matrix@M@@QEBAPEAMXZ 000000018000c6d0 f i mexOMPMask.obj
 0001:0000b6d0       ?rawX@?$Matrix@N@@QEBAPEANXZ 000000018000c6d0 f i mexOMPMask.obj
 0001:0000b6d0       ?r@?$SpMatrix@M@@QEBAPEA_JXZ 000000018000c6d0 f i mexOMPMask.obj
 0001:0000b6d0       ?X@?$Matrix@M@@QEBAPEBMXZ  000000018000c6d0 f i mexOMPMask.obj
 0001:0000b6d0       ?X@?$Matrix@_J@@QEBAPEB_JXZ 000000018000c6d0 f i mexOMPMask.obj
 0001:0000b6d0       ?r@?$SpMatrix@N@@QEBAPEA_JXZ 000000018000c6d0 f i mexOMPMask.obj
 0001:0000b6e0       ?XtX@?$Matrix@M@@UEBAXAEAV1@@Z 000000018000c6e0 f i mexOMPMask.obj
 0001:0000b7a0       ?XtX@?$Matrix@N@@UEBAXAEAV1@@Z 000000018000c7a0 f i mexOMPMask.obj
 0001:0000b860       ?XtX@?$Matrix@_J@@UEBAXAEAV1@@Z 000000018000c860 f i mexOMPMask.obj
 0001:0000b920       ?XtX@?$Matrix@_N@@UEBAXAEAV1@@Z 000000018000c920 f i mexOMPMask.obj
 0001:0000b9d0       ?XtX@?$SpMatrix@M@@UEBAXAEAV?$Matrix@M@@@Z 000000018000c9d0 f i mexOMPMask.obj
 0001:0000baf0       ?XtX@?$SpMatrix@N@@UEBAXAEAV?$Matrix@N@@@Z 000000018000caf0 f i mexOMPMask.obj
 0001:0000bc10       ?_Copy@?$basic_string@DU?$char_traits@D@std@@V?$allocator@D@2@@std@@QEAAX_K0@Z 000000018000cc10 f i mexOMPMask.obj
 0001:0000be00       ?_Eos@?$basic_string@DU?$char_traits@D@std@@V?$allocator@D@2@@std@@QEAAX_K@Z 000000018000ce00 f i mexOMPMask.obj
 0001:0000be50       ?_Getal@?$_String_alloc@$0A@U?$_String_base_types@DV?$allocator@D@std@@@std@@@std@@QEBA?AU?$_Wrap_alloc@V?$allocator@D@std@@@2@XZ 000000018000ce50 f i mexOMPMask.obj
 0001:0000be80       ?_Grow@?$basic_string@DU?$char_traits@D@std@@V?$allocator@D@2@@std@@QEAA_N_K_N@Z 000000018000ce80 f i mexOMPMask.obj
 0001:0000bf60       ?_Inside@?$basic_string@DU?$char_traits@D@std@@V?$allocator@D@2@@std@@QEAA_NPEBD@Z 000000018000cf60 f i mexOMPMask.obj
 0001:0000bfb0       ?_Myptr@?$_String_val@U?$_Simple_types@D@std@@@std@@QEBAPEBDXZ 000000018000cfb0 f i mexOMPMask.obj
 0001:0000bfb0       ?_Myptr@?$_String_val@U?$_Simple_types@D@std@@@std@@QEAAPEADXZ 000000018000cfb0 f i mexOMPMask.obj
 0001:0000bff0       ?_Myval@?$_List_val@U?$_List_simple_types@_J@std@@@std@@SAAEA_JPEAU?$_List_node@_JPEAX@2@@Z 000000018000cff0 f i mexOMPMask.obj
 0001:0000c000       ?_Tidy@?$basic_string@DU?$char_traits@D@std@@V?$allocator@D@2@@std@@QEAAX_N_K@Z 000000018000d000 f i mexOMPMask.obj
 0001:0000c0e0       ?_Xlen@?$basic_string@DU?$char_traits@D@std@@V?$allocator@D@2@@std@@QEBAXXZ 000000018000d0e0 f i mexOMPMask.obj
 0001:0000c100       ?_Xran@?$basic_string@DU?$char_traits@D@std@@V?$allocator@D@2@@std@@QEBAXXZ 000000018000d100 f i mexOMPMask.obj
 0001:0000c120       ?add@?$Vector@M@@QEAAXAEBV1@M@Z 000000018000d120 f i mexOMPMask.obj
 0001:0000c180       ?add@?$Vector@N@@QEAAXAEBV1@N@Z 000000018000d180 f i mexOMPMask.obj
 0001:0000c1e0       ?add@?$Vector@_J@@QEAAXAEBV1@_J@Z 000000018000d1e0 f i mexOMPMask.obj
 0001:0000c240       ?add@?$Vector@_N@@QEAAXAEBV1@_N@Z 000000018000d240 f i mexOMPMask.obj
 0001:0000c2a0       ?addDiag@?$Matrix@M@@QEAAXM@Z 000000018000d2a0 f i mexOMPMask.obj
 0001:0000c360       ?addDiag@?$Matrix@N@@QEAAXN@Z 000000018000d360 f i mexOMPMask.obj
 0001:0000c420       ?addDiag@?$ProdMatrix@M@@QEAAXM@Z 000000018000d420 f i mexOMPMask.obj
 0001:0000c480       ?addDiag@?$ProdMatrix@N@@QEAAXN@Z 000000018000d480 f i mexOMPMask.obj
 0001:0000c4e0       ?addRow@?$Matrix@M@@QEAAX_JAEBV?$Vector@M@@M@Z 000000018000d4e0 f i mexOMPMask.obj
 0001:0000c670       ?addRow@?$Matrix@N@@QEAAX_JAEBV?$Vector@N@@N@Z 000000018000d670 f i mexOMPMask.obj
 0001:0000c800       ?addRow@?$Matrix@_J@@QEAAX_JAEBV?$Vector@_J@@0@Z 000000018000d800 f i mexOMPMask.obj
 0001:0000c980       ?addRow@?$Matrix@_N@@QEAAX_JAEBV?$Vector@_N@@_N@Z 000000018000d980 f i mexOMPMask.obj
 0001:0000cb30       ?add_rawCol@?$Matrix@M@@UEBAX_JPEAMM@Z 000000018000db30 f i mexOMPMask.obj
 0001:0000cba0       ?add_rawCol@?$Matrix@N@@UEBAX_JPEANN@Z 000000018000dba0 f i mexOMPMask.obj
 0001:0000cc10       ?add_rawCol@?$Matrix@_J@@UEBAX_JPEA_J0@Z 000000018000dc10 f i mexOMPMask.obj
 0001:0000cc80       ?add_rawCol@?$Matrix@_N@@UEBAX_JPEA_N_N@Z 000000018000dc80 f i mexOMPMask.obj
 0001:0000ccf0       ?add_rawCol@?$ProdMatrix@M@@UEBAX_JPEAMM@Z 000000018000dcf0 f i mexOMPMask.obj
 0001:0000ce90       ?add_rawCol@?$ProdMatrix@N@@UEBAX_JPEANN@Z 000000018000de90 f i mexOMPMask.obj
 0001:0000d030       ?allfalse@?$Vector@_N@@QEBA_NXZ 000000018000e030 f i mexOMPMask.obj
 0001:0000d080       ?allocate@?$_Wrap_alloc@V?$allocator@D@std@@@std@@QEAAPEAD_K@Z 000000018000e080 f i mexOMPMask.obj
 0001:0000d0b0       ?allocate@?$allocator@D@std@@QEAAPEAD_K@Z 000000018000e0b0 f i mexOMPMask.obj
 0001:0000d0d0       ?alltrue@?$Vector@_N@@QEBA_NXZ 000000018000e0d0 f i mexOMPMask.obj
 0001:0000d120       ?assign@?$basic_string@DU?$char_traits@D@std@@V?$allocator@D@2@@std@@QEAAAEAV12@AEBV12@_K1@Z 000000018000e120 f i mexOMPMask.obj
 0001:0000d220       ?assign@?$basic_string@DU?$char_traits@D@std@@V?$allocator@D@2@@std@@QEAAAEAV12@PEBD@Z 000000018000e220 f i mexOMPMask.obj
 0001:0000d250       ?assign@?$basic_string@DU?$char_traits@D@std@@V?$allocator@D@2@@std@@QEAAAEAV12@PEBD_K@Z 000000018000e250 f i mexOMPMask.obj
 0001:0000d300       ?assign@?$char_traits@D@std@@SAXAEADAEBD@Z 000000018000e300 f i mexOMPMask.obj
 0001:0000d320       ?begin@?$list@_JV?$allocator@_J@std@@@std@@QEBA?AV?$_List_const_iterator@V?$_List_val@U?$_List_simple_types@_J@std@@@std@@@2@XZ 000000018000e320 f i mexOMPMask.obj
 0001:0000d360       ?c_str@?$basic_string@DU?$char_traits@D@std@@V?$allocator@D@2@@std@@QEBAPEBDXZ 000000018000e360 f i mexOMPMask.obj
 0001:0000d380       ?clear@?$Matrix@N@@QEAAXXZ 000000018000e380 f i mexOMPMask.obj
 0001:0000d380       ?clear@?$Matrix@M@@QEAAXXZ 000000018000e380 f i mexOMPMask.obj
 0001:0000d380       ?clear@?$Matrix@_N@@QEAAXXZ 000000018000e380 f i mexOMPMask.obj
 0001:0000d380       ?clear@?$Matrix@_J@@QEAAXXZ 000000018000e380 f i mexOMPMask.obj
 0001:0000d3f0       ?clear@?$SpMatrix@N@@QEAAXXZ 000000018000e3f0 f i mexOMPMask.obj
 0001:0000d3f0       ?clear@?$SpMatrix@M@@QEAAXXZ 000000018000e3f0 f i mexOMPMask.obj
 0001:0000d4c0       ?clear@?$SpVector@_J@@QEAAXXZ 000000018000e4c0 f i mexOMPMask.obj
 0001:0000d4c0       ?clear@?$SpVector@N@@QEAAXXZ 000000018000e4c0 f i mexOMPMask.obj
 0001:0000d4c0       ?clear@?$SpVector@M@@QEAAXXZ 000000018000e4c0 f i mexOMPMask.obj
 0001:0000d4c0       ?clear@?$SpVector@_N@@QEAAXXZ 000000018000e4c0 f i mexOMPMask.obj
 0001:0000d550       ?clear@?$Vector@_J@@QEAAXXZ 000000018000e550 f i mexOMPMask.obj
 0001:0000d550       ?clear@?$Vector@_N@@QEAAXXZ 000000018000e550 f i mexOMPMask.obj
 0001:0000d550       ?clear@?$Vector@M@@QEAAXXZ 000000018000e550 f i mexOMPMask.obj
 0001:0000d550       ?clear@?$Vector@H@@QEAAXXZ 000000018000e550 f i mexOMPMask.obj
 0001:0000d550       ?clear@?$Vector@N@@QEAAXXZ 000000018000e550 f i mexOMPMask.obj
 0001:0000d5b0       ?convert@?$SpMatrix@M@@QEAAXAEBV?$Matrix@M@@AEBV?$Matrix@_J@@_J@Z 000000018000e5b0 f i mexOMPMask.obj
 0001:0000d830       ?convert@?$SpMatrix@N@@QEAAXAEBV?$Matrix@N@@AEBV?$Matrix@_J@@_J@Z 000000018000e830 f i mexOMPMask.obj
 0001:0000dab0       ?copy@?$Matrix@M@@QEAAXAEBV1@@Z 000000018000eab0 f i mexOMPMask.obj
 0001:0000db20       ?copy@?$Matrix@_J@@QEAAXAEBV1@@Z 000000018000eb20 f i mexOMPMask.obj
 0001:0000db20       ?copy@?$Matrix@N@@QEAAXAEBV1@@Z 000000018000eb20 f i mexOMPMask.obj
 0001:0000db90       ?copy@?$Matrix@_N@@QEAAXAEBV1@@Z 000000018000eb90 f i mexOMPMask.obj
 0001:0000dbf0       ?copy@?$Vector@M@@QEAAXAEBV1@@Z 000000018000ebf0 f i mexOMPMask.obj
 0001:0000dc50       ?copy@?$Vector@N@@QEAAXAEBV1@@Z 000000018000ec50 f i mexOMPMask.obj
 0001:0000dcb0       ?copy@?$char_traits@D@std@@SAPEADPEADPEBD_K@Z 000000018000ecb0 f i mexOMPMask.obj
 0001:0000dd00       ?copyCol@?$Matrix@M@@UEBAX_JAEAV?$Vector@M@@@Z 000000018000ed00 f i mexOMPMask.obj
 0001:0000dd80       ?copyCol@?$Matrix@N@@UEBAX_JAEAV?$Vector@N@@@Z 000000018000ed80 f i mexOMPMask.obj
 0001:0000de00       ?copyCol@?$Matrix@_J@@UEBAX_JAEAV?$Vector@_J@@@Z 000000018000ee00 f i mexOMPMask.obj
 0001:0000de80       ?copyCol@?$Matrix@_N@@UEBAX_JAEAV?$Vector@_N@@@Z 000000018000ee80 f i mexOMPMask.obj
 0001:0000def0       ?copyCol@?$ProdMatrix@M@@UEBAX_JAEAV?$Vector@M@@@Z 000000018000eef0 f i mexOMPMask.obj
 0001:0000e020       ?copyCol@?$ProdMatrix@N@@UEBAX_JAEAV?$Vector@N@@@Z 000000018000f020 f i mexOMPMask.obj
 0001:0000e150       ?copyMask@?$Matrix@M@@QEBAXAEAV1@AEAV?$Vector@_N@@@Z 000000018000f150 f i mexOMPMask.obj
 0001:0000e2e0       ?copyMask@?$Matrix@N@@QEBAXAEAV1@AEAV?$Vector@_N@@@Z 000000018000f2e0 f i mexOMPMask.obj
 0001:0000e470       ?copyMask@?$Vector@M@@QEBAXAEAV1@AEAV?$Vector@_N@@@Z 000000018000f470 f i mexOMPMask.obj
 0001:0000e530       ?copyMask@?$Vector@N@@QEBAXAEAV1@AEAV?$Vector@_N@@@Z 000000018000f530 f i mexOMPMask.obj
 0001:0000e5f0       ?copyRow@?$Matrix@M@@UEBAX_JAEAV?$Vector@M@@@Z 000000018000f5f0 f i mexOMPMask.obj
 0001:0000e660       ?copyRow@?$Matrix@N@@UEBAX_JAEAV?$Vector@N@@@Z 000000018000f660 f i mexOMPMask.obj
 0001:0000e6d0       ?copyRow@?$Matrix@_J@@UEBAX_JAEAV?$Vector@_J@@@Z 000000018000f6d0 f i mexOMPMask.obj
 0001:0000e740       ?copyRow@?$Matrix@_N@@UEBAX_JAEAV?$Vector@_N@@@Z 000000018000f740 f i mexOMPMask.obj
 0001:0000e7b0       ?copyRow@?$SpMatrix@M@@UEBAX_JAEAV?$Vector@M@@@Z 000000018000f7b0 f i mexOMPMask.obj
 0001:0000e8c0       ?copyRow@?$SpMatrix@N@@UEBAX_JAEAV?$Vector@N@@@Z 000000018000f8c0 f i mexOMPMask.obj
 0001:0000e9d0       ?copyTo@?$Matrix@M@@UEBAXAEAV1@@Z 000000018000f9d0 f i mexOMPMask.obj
 0001:0000ea00       ?copyTo@?$Matrix@_J@@UEBAXAEAV1@@Z 000000018000fa00 f i mexOMPMask.obj
 0001:0000ea00       ?copyTo@?$Matrix@N@@UEBAXAEAV1@@Z 000000018000fa00 f i mexOMPMask.obj
 0001:0000ea30       ?copyTo@?$Matrix@_N@@UEBAXAEAV1@@Z 000000018000fa30 f i mexOMPMask.obj
 0001:0000ea60       ?copyTo@?$SpMatrix@M@@UEBAXAEAV?$Matrix@M@@@Z 000000018000fa60 f i mexOMPMask.obj
 0001:0000ea90       ?copyTo@?$SpMatrix@N@@UEBAXAEAV?$Matrix@N@@@Z 000000018000fa90 f i mexOMPMask.obj
 0001:0000eac0       ?deallocate@?$_Wrap_alloc@V?$allocator@D@std@@@std@@QEAAXPEAD_K@Z 000000018000fac0 f i mexOMPMask.obj
 0001:0000eaf0       ?deallocate@?$allocator@D@std@@QEAAXPEAD_K@Z 000000018000faf0 f i mexOMPMask.obj
 0001:0000eb20       ?default_error_condition@_System_error_category@std@@UEBA?AVerror_condition@2@H@Z 000000018000fb20 f i mexOMPMask.obj
 0001:0000eb90       ?default_error_condition@error_category@std@@UEBA?AVerror_condition@2@H@Z 000000018000fb90 f i mexOMPMask.obj
 0001:0000ebc0       ?diag@?$Matrix@M@@UEBAXAEAV?$Vector@M@@@Z 000000018000fbc0 f i mexOMPMask.obj
 0001:0000ec90       ?diag@?$Matrix@N@@UEBAXAEAV?$Vector@N@@@Z 000000018000fc90 f i mexOMPMask.obj
 0001:0000ed60       ?diag@?$Matrix@_J@@UEBAXAEAV?$Vector@_J@@@Z 000000018000fd60 f i mexOMPMask.obj
 0001:0000ee30       ?diag@?$Matrix@_N@@UEBAXAEAV?$Vector@_N@@@Z 000000018000fe30 f i mexOMPMask.obj
 0001:0000ef00       ?diag@?$ProdMatrix@M@@UEBAXAEAV?$Vector@M@@@Z 000000018000ff00 f i mexOMPMask.obj
 0001:0000f050       ?diag@?$ProdMatrix@N@@UEBAXAEAV?$Vector@N@@@Z 0000000180010050 f i mexOMPMask.obj
 0001:0000f1a0       ?div@?$Vector@M@@QEAAXAEBV1@@Z 00000001800101a0 f i mexOMPMask.obj
 0001:0000f1e0       ?div@?$Vector@N@@QEAAXAEBV1@@Z 00000001800101e0 f i mexOMPMask.obj
 0001:0000f220       ?dot@?$Matrix@M@@UEBAMAEBV1@@Z 0000000180010220 f i mexOMPMask.obj
 0001:0000f270       ?dot@?$Matrix@N@@UEBANAEBV1@@Z 0000000180010270 f i mexOMPMask.obj
 0001:0000f2c0       ?dot@?$Matrix@_J@@UEBA_JAEBV1@@Z 00000001800102c0 f i mexOMPMask.obj
 0001:0000f310       ?dot@?$Matrix@_N@@UEBA_NAEBV1@@Z 0000000180010310 f i mexOMPMask.obj
 0001:0000f360       ?dot@?$SpMatrix@M@@UEBAMAEBV?$Matrix@M@@@Z 0000000180010360 f i mexOMPMask.obj
 0001:0000f470       ?dot@?$SpMatrix@N@@UEBANAEBV?$Matrix@N@@@Z 0000000180010470 f i mexOMPMask.obj
 0001:0000f580       ?dot@?$SpVector@M@@QEBAMAEBV1@@Z 0000000180010580 f i mexOMPMask.obj
 0001:0000f6a0       ?dot@?$SpVector@N@@QEBANAEBV1@@Z 00000001800106a0 f i mexOMPMask.obj
 0001:0000f7c0       ?dot@?$Vector@M@@QEBAMAEBV1@@Z 00000001800107c0 f i mexOMPMask.obj
 0001:0000f810       ?dot@?$Vector@M@@QEBAMAEBV?$SpVector@M@@@Z 0000000180010810 f i mexOMPMask.obj
 0001:0000f8c0       ?dot@?$Vector@N@@QEBANAEBV1@@Z 00000001800108c0 f i mexOMPMask.obj
 0001:0000f910       ?dot@?$Vector@N@@QEBANAEBV?$SpVector@N@@@Z 0000000180010910 f i mexOMPMask.obj
 0001:0000f9c0       ?dot@?$Vector@_J@@QEBA_JAEBV?$SpVector@_J@@@Z 00000001800109c0 f i mexOMPMask.obj
 0001:0000fa70       ?dot@?$Vector@_N@@QEBA_NAEBV?$SpVector@_N@@@Z 0000000180010a70 f i mexOMPMask.obj
 0001:0000fb30       ?end@?$list@_JV?$allocator@_J@std@@@std@@QEBA?AV?$_List_const_iterator@V?$_List_val@U?$_List_simple_types@_J@std@@@std@@@2@XZ 0000000180010b30 f i mexOMPMask.obj
 0001:0000fb60       ?eof@?$char_traits@D@std@@SAHXZ 0000000180010b60 f i mexOMPMask.obj
 0001:0000fb70       ?eq_int_type@?$char_traits@D@std@@SA_NAEBH0@Z 0000000180010b70 f i mexOMPMask.obj
 0001:0000fbb0       ?equivalent@error_category@std@@UEBA_NAEBVerror_code@2@H@Z 0000000180010bb0 f i mexOMPMask.obj
 0001:0000fc10       ?equivalent@error_category@std@@UEBA_NHAEBVerror_condition@2@@Z 0000000180010c10 f i mexOMPMask.obj
 0001:0000fc50       ?erase@?$basic_string@DU?$char_traits@D@std@@V?$allocator@D@2@@std@@QEAAAEAV12@_K0@Z 0000000180010c50 f i mexOMPMask.obj
 0001:0000fd30       ?erase@?$basic_string@DU?$char_traits@D@std@@V?$allocator@D@2@@std@@QEAAAEAV12@_K@Z 0000000180010d30 f i mexOMPMask.obj
 0001:0000fd80       ?extract_rawCol@?$Matrix@M@@UEBAX_JPEAM@Z 0000000180010d80 f i mexOMPMask.obj
 0001:0000fde0       ?extract_rawCol@?$Matrix@N@@UEBAX_JPEAN@Z 0000000180010de0 f i mexOMPMask.obj
 0001:0000fe40       ?extract_rawCol@?$Matrix@_J@@UEBAX_JPEA_J@Z 0000000180010e40 f i mexOMPMask.obj
 0001:0000fea0       ?extract_rawCol@?$Matrix@_N@@UEBAX_JPEA_N@Z 0000000180010ea0 f i mexOMPMask.obj
 0001:0000ff00       ?extract_rawCol@?$ProdMatrix@M@@UEBAX_JPEAM@Z 0000000180010f00 f i mexOMPMask.obj
 0001:00010080       ?extract_rawCol@?$ProdMatrix@N@@UEBAX_JPEAN@Z 0000000180011080 f i mexOMPMask.obj
 0001:00010200       ?fillSymmetric@?$Matrix@M@@QEAAXXZ 0000000180011200 f i mexOMPMask.obj
 0001:000102b0       ?fillSymmetric@?$Matrix@N@@QEAAXXZ 00000001800112b0 f i mexOMPMask.obj
 0001:00010360       ?fillSymmetric@?$Matrix@_J@@QEAAXXZ 0000000180011360 f i mexOMPMask.obj
 0001:00010410       ?fillSymmetric@?$Matrix@_N@@QEAAXXZ 0000000180011410 f i mexOMPMask.obj
 0001:000104c0       ?fmax@?$Vector@M@@QEBA_JXZ 00000001800114c0 f i mexOMPMask.obj
 0001:000104f0       ?fmax@?$Vector@N@@QEBA_JXZ 00000001800114f0 f i mexOMPMask.obj
 0001:00010520       ?generic_category@std@@YAAEBVerror_category@1@XZ 0000000180011520 f i mexOMPMask.obj
 0001:00010530       ?getData@?$Matrix@N@@UEBAXAEAV?$Vector@N@@_J@Z 0000000180011530 f i mexOMPMask.obj
 0001:00010530       ?getData@?$Matrix@M@@UEBAXAEAV?$Vector@M@@_J@Z 0000000180011530 f i mexOMPMask.obj
 0001:00010530       ?getData@?$Matrix@_J@@UEBAXAEAV?$Vector@_J@@_J@Z 0000000180011530 f i mexOMPMask.obj
 0001:00010530       ?getData@?$Matrix@_N@@UEBAXAEAV?$Vector@_N@@_J@Z 0000000180011530 f i mexOMPMask.obj
 0001:00010580       ?getData@?$SpMatrix@M@@UEBAXAEAV?$Vector@M@@_J@Z 0000000180011580 f i mexOMPMask.obj
 0001:00010640       ?getData@?$SpMatrix@N@@UEBAXAEAV?$Vector@N@@_J@Z 0000000180011640 f i mexOMPMask.obj
 0001:00010700       ?getGroup@?$Matrix@M@@UEBAXAEAV1@AEBV?$vector@V?$list@_JV?$allocator@_J@std@@@std@@V?$allocator@V?$list@_JV?$allocator@_J@std@@@std@@@2@@std@@_J@Z 0000000180011700 f i mexOMPMask.obj
 0001:00010830       ?getGroup@?$Matrix@N@@UEBAXAEAV1@AEBV?$vector@V?$list@_JV?$allocator@_J@std@@@std@@V?$allocator@V?$list@_JV?$allocator@_J@std@@@std@@@2@@std@@_J@Z 0000000180011830 f i mexOMPMask.obj
 0001:00010960       ?getGroup@?$Matrix@_J@@UEBAXAEAV1@AEBV?$vector@V?$list@_JV?$allocator@_J@std@@@std@@V?$allocator@V?$list@_JV?$allocator@_J@std@@@std@@@2@@std@@_J@Z 0000000180011960 f i mexOMPMask.obj
 0001:00010a90       ?getGroup@?$Matrix@_N@@UEBAXAEAV1@AEBV?$vector@V?$list@_JV?$allocator@_J@std@@@std@@V?$allocator@V?$list@_JV?$allocator@_J@std@@@std@@@2@@std@@_J@Z 0000000180011a90 f i mexOMPMask.obj
 0001:00010bc0       ?getGroup@?$SpMatrix@M@@UEBAXAEAV?$Matrix@M@@AEBV?$vector@V?$list@_JV?$allocator@_J@std@@@std@@V?$allocator@V?$list@_JV?$allocator@_J@std@@@std@@@2@@std@@_J@Z 0000000180011bc0 f i mexOMPMask.obj
 0001:00010cf0       ?getGroup@?$SpMatrix@N@@UEBAXAEAV?$Matrix@N@@AEBV?$vector@V?$list@_JV?$allocator@_J@std@@@std@@V?$allocator@V?$list@_JV?$allocator@_J@std@@@std@@@2@@std@@_J@Z 0000000180011cf0 f i mexOMPMask.obj
 0001:00010e20       ?length@?$char_traits@D@std@@SA_KPEBD@Z 0000000180011e20 f i mexOMPMask.obj
 0001:00010e60       ?m@?$Matrix@_J@@UEBA_JXZ   0000000180011e60 f i mexOMPMask.obj
 0001:00010e60       ?n@?$ProdMatrix@M@@UEBA_JXZ 0000000180011e60 f i mexOMPMask.obj
 0001:00010e60       ?m@?$Matrix@_N@@UEBA_JXZ   0000000180011e60 f i mexOMPMask.obj
 0001:00010e60       ?pB@?$SpMatrix@M@@QEBAPEA_JXZ 0000000180011e60 f i mexOMPMask.obj
 0001:00010e60       ?pB@?$SpMatrix@N@@QEBAPEA_JXZ 0000000180011e60 f i mexOMPMask.obj
 0001:00010e60       ?n@?$ProdMatrix@N@@UEBA_JXZ 0000000180011e60 f i mexOMPMask.obj
 0001:00010e60       ?m@?$Matrix@M@@UEBA_JXZ    0000000180011e60 f i mexOMPMask.obj
 0001:00010e60       ?m@?$Matrix@N@@UEBA_JXZ    0000000180011e60 f i mexOMPMask.obj
 0001:00010e70       ?m@?$Matrix@N@@W7EBA_JXZ   0000000180011e70 f i mexOMPMask.obj
 0001:00010e70       ?m@?$Matrix@_J@@W7EBA_JXZ  0000000180011e70 f i mexOMPMask.obj
 0001:00010e70       ?m@?$Matrix@_N@@W7EBA_JXZ  0000000180011e70 f i mexOMPMask.obj
 0001:00010e70       ?m@?$Matrix@M@@W7EBA_JXZ   0000000180011e70 f i mexOMPMask.obj
 0001:00010e7c       ?m@?$Matrix@M@@WBA@EBA_JXZ 0000000180011e7c f i mexOMPMask.obj
 0001:00010e7c       ?m@?$Matrix@N@@WBA@EBA_JXZ 0000000180011e7c f i mexOMPMask.obj
 0001:00010e7c       ?m@?$Matrix@_N@@WBA@EBA_JXZ 0000000180011e7c f i mexOMPMask.obj
 0001:00010e7c       ?m@?$Matrix@_J@@WBA@EBA_JXZ 0000000180011e7c f i mexOMPMask.obj
 0001:00010e90       ?m@?$SpMatrix@M@@UEBA_JXZ  0000000180011e90 f i mexOMPMask.obj
 0001:00010e90       ?m@?$SpMatrix@N@@UEBA_JXZ  0000000180011e90 f i mexOMPMask.obj
 0001:00010ea0       ?m@?$SpMatrix@M@@W7EBA_JXZ 0000000180011ea0 f i mexOMPMask.obj
 0001:00010ea0       ?m@?$SpMatrix@N@@W7EBA_JXZ 0000000180011ea0 f i mexOMPMask.obj
 0001:00010eb0       ?max@?$Vector@H@@QEBA_JXZ  0000000180011eb0 f i mexOMPMask.obj
 0001:00010f40       ?max_size@?$_Wrap_alloc@V?$allocator@D@std@@@std@@QEBA_KXZ 0000000180011f40 f i mexOMPMask.obj
 0001:00010f60       ?max_size@?$allocator@D@std@@QEBA_KXZ 0000000180011f60 f i mexOMPMask.obj
 0001:00010f70       ?max_size@?$allocator_traits@V?$allocator@D@std@@@std@@SA_KAEBV?$allocator@D@2@@Z 0000000180011f70 f i mexOMPMask.obj
 0001:00010f90       ?max_size@?$basic_string@DU?$char_traits@D@std@@V?$allocator@D@2@@std@@QEBA_KXZ 0000000180011f90 f i mexOMPMask.obj
 0001:00010fe0       ?maxval@?$Vector@H@@QEBAHXZ 0000000180011fe0 f i mexOMPMask.obj
 0001:00011010       ?message@_Generic_error_category@std@@UEBA?AV?$basic_string@DU?$char_traits@D@std@@V?$allocator@D@2@@2@H@Z 0000000180012010 f i mexOMPMask.obj
 0001:00011080       ?message@_Iostream_error_category@std@@UEBA?AV?$basic_string@DU?$char_traits@D@std@@V?$allocator@D@2@@2@H@Z 0000000180012080 f i mexOMPMask.obj
 0001:000110f0       ?message@_System_error_category@std@@UEBA?AV?$basic_string@DU?$char_traits@D@std@@V?$allocator@D@2@@2@H@Z 00000001800120f0 f i mexOMPMask.obj
 0001:00011160       ?move@?$char_traits@D@std@@SAPEADPEADPEBD_K@Z 0000000180012160 f i mexOMPMask.obj
 0001:000111b0       ?mult@?$Matrix@M@@UEBAXAEBV1@AEAV1@_N2MM@Z 00000001800121b0 f i mexOMPMask.obj
 0001:00011360       ?mult@?$Matrix@M@@UEBAXAEBV?$SpMatrix@M@@AEAV1@_N2MM@Z 0000000180012360 f i mexOMPMask.obj
 0001:00011930       ?mult@?$Matrix@M@@UEBAXAEBV?$SpVector@M@@AEAV?$Vector@M@@MM@Z 0000000180012930 f i mexOMPMask.obj
 0001:00011af0       ?mult@?$Matrix@M@@UEBAXAEBV?$Vector@M@@AEAV2@MM@Z 0000000180012af0 f i mexOMPMask.obj
 0001:00011bb0       ?mult@?$Matrix@N@@UEBAXAEBV1@AEAV1@_N2NN@Z 0000000180012bb0 f i mexOMPMask.obj
 0001:00011d60       ?mult@?$Matrix@N@@UEBAXAEBV?$SpMatrix@N@@AEAV1@_N2NN@Z 0000000180012d60 f i mexOMPMask.obj
 0001:00012330       ?mult@?$Matrix@N@@UEBAXAEBV?$SpVector@N@@AEAV?$Vector@N@@NN@Z 0000000180013330 f i mexOMPMask.obj
 0001:000124f0       ?mult@?$Matrix@N@@UEBAXAEBV?$Vector@N@@AEAV2@NN@Z 00000001800134f0 f i mexOMPMask.obj
 0001:000125b0       ?mult@?$Matrix@_J@@UEBAXAEBV1@AEAV1@_N2_J3@Z 00000001800135b0 f i mexOMPMask.obj
 0001:00012750       ?mult@?$Matrix@_J@@UEBAXAEBV?$SpMatrix@_J@@AEAV1@_N2_J3@Z 0000000180013750 f i mexOMPMask.obj
 0001:00012ce0       ?mult@?$Matrix@_J@@UEBAXAEBV?$SpVector@_J@@AEAV?$Vector@_J@@_J2@Z 0000000180013ce0 f i mexOMPMask.obj
 0001:00012e90       ?mult@?$Matrix@_J@@UEBAXAEBV?$Vector@_J@@AEAV2@_J2@Z 0000000180013e90 f i mexOMPMask.obj
 0001:00012f50       ?mult@?$Matrix@_N@@UEBAXAEBV1@AEAV1@_N222@Z 0000000180013f50 f i mexOMPMask.obj
 0001:000130f0       ?mult@?$Matrix@_N@@UEBAXAEBV?$SpMatrix@_N@@AEAV1@_N222@Z 00000001800140f0 f i mexOMPMask.obj
 0001:00013680       ?mult@?$Matrix@_N@@UEBAXAEBV?$SpVector@_N@@AEAV?$Vector@_N@@_N2@Z 0000000180014680 f i mexOMPMask.obj
 0001:00013850       ?mult@?$Matrix@_N@@UEBAXAEBV?$Vector@_N@@AEAV2@_N2@Z 0000000180014850 f i mexOMPMask.obj
 0001:00013910       ?mult@?$SpMatrix@M@@UEBAXAEBV1@AEAV?$Matrix@M@@_N2MM@Z 0000000180014910 f i mexOMPMask.obj
 0001:00013ee0       ?mult@?$SpMatrix@M@@UEBAXAEBV?$Matrix@M@@AEAV2@_N2MM@Z 0000000180014ee0 f i mexOMPMask.obj
 0001:00014520       ?mult@?$SpMatrix@M@@UEBAXAEBV?$SpVector@M@@AEAV?$Vector@M@@MM@Z 0000000180015520 f i mexOMPMask.obj
 0001:000146a0       ?mult@?$SpMatrix@M@@UEBAXAEBV?$Vector@M@@AEAV2@MM@Z 00000001800156a0 f i mexOMPMask.obj
 0001:00014800       ?mult@?$SpMatrix@N@@UEBAXAEBV1@AEAV?$Matrix@N@@_N2NN@Z 0000000180015800 f i mexOMPMask.obj
 0001:00014de0       ?mult@?$SpMatrix@N@@UEBAXAEBV?$Matrix@N@@AEAV2@_N2NN@Z 0000000180015de0 f i mexOMPMask.obj
 0001:00015420       ?mult@?$SpMatrix@N@@UEBAXAEBV?$SpVector@N@@AEAV?$Vector@N@@NN@Z 0000000180016420 f i mexOMPMask.obj
 0001:000155a0       ?mult@?$SpMatrix@N@@UEBAXAEBV?$Vector@N@@AEAV2@NN@Z 00000001800165a0 f i mexOMPMask.obj
 0001:00015700       ?multSwitch@?$Matrix@M@@UEBAXAEBV1@AEAV1@_N2MM@Z 0000000180016700 f i mexOMPMask.obj
 0001:00015780       ?multSwitch@?$Matrix@N@@UEBAXAEBV1@AEAV1@_N2NN@Z 0000000180016780 f i mexOMPMask.obj
 0001:00015800       ?multSwitch@?$Matrix@_J@@UEBAXAEBV1@AEAV1@_N2_J3@Z 0000000180016800 f i mexOMPMask.obj
 0001:00015880       ?multSwitch@?$Matrix@_N@@UEBAXAEBV1@AEAV1@_N222@Z 0000000180016880 f i mexOMPMask.obj
 0001:00015900       ?multSwitch@?$SpMatrix@M@@UEBAXAEBV?$Matrix@M@@AEAV2@_N2MM@Z 0000000180016900 f i mexOMPMask.obj
 0001:00015980       ?multSwitch@?$SpMatrix@N@@UEBAXAEBV?$Matrix@N@@AEAV2@_N2NN@Z 0000000180016980 f i mexOMPMask.obj
 0001:00015a00       ?multTrans@?$Matrix@M@@QEBAXAEBV?$SpVector@M@@AEAV?$Vector@M@@MM@Z 0000000180016a00 f i mexOMPMask.obj
 0001:00015b90       ?multTrans@?$Matrix@M@@UEBAXAEBV?$Vector@M@@AEAV2@MM@Z 0000000180016b90 f i mexOMPMask.obj
 0001:00015c50       ?multTrans@?$Matrix@N@@QEBAXAEBV?$SpVector@N@@AEAV?$Vector@N@@NN@Z 0000000180016c50 f i mexOMPMask.obj
 0001:00015de0       ?multTrans@?$Matrix@N@@UEBAXAEBV?$Vector@N@@AEAV2@NN@Z 0000000180016de0 f i mexOMPMask.obj
 0001:00015ea0       ?multTrans@?$Matrix@_J@@QEBAXAEBV?$SpVector@_J@@AEAV?$Vector@_J@@_J2@Z 0000000180016ea0 f i mexOMPMask.obj
 0001:00016020       ?multTrans@?$Matrix@_J@@UEBAXAEBV?$Vector@_J@@AEAV2@_J2@Z 0000000180017020 f i mexOMPMask.obj
 0001:000160e0       ?multTrans@?$Matrix@_N@@QEBAXAEBV?$SpVector@_N@@AEAV?$Vector@_N@@_N2@Z 00000001800170e0 f i mexOMPMask.obj
 0001:000162b0       ?multTrans@?$Matrix@_N@@UEBAXAEBV?$Vector@_N@@AEAV2@_N2@Z 00000001800172b0 f i mexOMPMask.obj
 0001:00016370       ?multTrans@?$SpMatrix@M@@QEBAXAEBV?$SpVector@M@@AEAV?$Vector@M@@MM@Z 0000000180017370 f i mexOMPMask.obj
 0001:00016490       ?multTrans@?$SpMatrix@M@@UEBAXAEBV?$Vector@M@@AEAV2@MM@Z 0000000180017490 f i mexOMPMask.obj
 0001:00016600       ?multTrans@?$SpMatrix@N@@QEBAXAEBV?$SpVector@N@@AEAV?$Vector@N@@NN@Z 0000000180017600 f i mexOMPMask.obj
 0001:00016720       ?multTrans@?$SpMatrix@N@@UEBAXAEBV?$Vector@N@@AEAV2@NN@Z 0000000180017720 f i mexOMPMask.obj
 0001:00016890       ?n@?$Matrix@_J@@UEBA_JXZ   0000000180017890 f i mexOMPMask.obj
 0001:00016890       ?n@?$Matrix@N@@UEBA_JXZ    0000000180017890 f i mexOMPMask.obj
 0001:00016890       ?m@?$ProdMatrix@M@@UEBA_JXZ 0000000180017890 f i mexOMPMask.obj
 0001:00016890       ?n@?$Matrix@_N@@UEBA_JXZ   0000000180017890 f i mexOMPMask.obj
 0001:00016890       ?m@?$ProdMatrix@N@@UEBA_JXZ 0000000180017890 f i mexOMPMask.obj
 0001:00016890       ?n@?$Matrix@M@@UEBA_JXZ    0000000180017890 f i mexOMPMask.obj
 0001:000168a0       ?n@?$Matrix@_J@@W7EBA_JXZ  00000001800178a0 f i mexOMPMask.obj
 0001:000168a0       ?n@?$Matrix@N@@W7EBA_JXZ   00000001800178a0 f i mexOMPMask.obj
 0001:000168a0       ?n@?$Matrix@M@@W7EBA_JXZ   00000001800178a0 f i mexOMPMask.obj
 0001:000168a0       ?n@?$Matrix@_N@@W7EBA_JXZ  00000001800178a0 f i mexOMPMask.obj
 0001:000168ac       ?n@?$Matrix@M@@WBA@EBA_JXZ 00000001800178ac f i mexOMPMask.obj
 0001:000168ac       ?n@?$Matrix@_J@@WBA@EBA_JXZ 00000001800178ac f i mexOMPMask.obj
 0001:000168ac       ?n@?$Matrix@N@@WBA@EBA_JXZ 00000001800178ac f i mexOMPMask.obj
 0001:000168ac       ?n@?$Matrix@_N@@WBA@EBA_JXZ 00000001800178ac f i mexOMPMask.obj
 0001:000168c0       ?n@?$SpMatrix@M@@UEBA_JXZ  00000001800178c0 f i mexOMPMask.obj
 0001:000168c0       ?n@?$SpMatrix@N@@UEBA_JXZ  00000001800178c0 f i mexOMPMask.obj
 0001:000168d0       ?n@?$SpMatrix@N@@W7EBA_JXZ 00000001800178d0 f i mexOMPMask.obj
 0001:000168d0       ?n@?$SpMatrix@M@@W7EBA_JXZ 00000001800178d0 f i mexOMPMask.obj
 0001:000168e0       ?v@?$SpMatrix@N@@QEBAPEANXZ 00000001800178e0 f i mexOMPMask.obj
 0001:000168e0       ?L@?$SpVector@M@@QEBA_JXZ  00000001800178e0 f i mexOMPMask.obj
 0001:000168e0       ?L@?$SpVector@N@@QEBA_JXZ  00000001800178e0 f i mexOMPMask.obj
 0001:000168e0       ?n@?$Vector@_N@@QEBA_JXZ   00000001800178e0 f i mexOMPMask.obj
 0001:000168e0       ?n@?$Vector@N@@QEBA_JXZ    00000001800178e0 f i mexOMPMask.obj
 0001:000168e0       ?n@?$Vector@M@@QEBA_JXZ    00000001800178e0 f i mexOMPMask.obj
 0001:000168e0       ?v@?$SpMatrix@M@@QEBAPEAMXZ 00000001800178e0 f i mexOMPMask.obj
 0001:000168f0       ?name@_Generic_error_category@std@@UEBAPEBDXZ 00000001800178f0 f i mexOMPMask.obj
 0001:00016900       ?name@_Iostream_error_category@std@@UEBAPEBDXZ 0000000180017900 f i mexOMPMask.obj
 0001:00016910       ?name@_System_error_category@std@@UEBAPEBDXZ 0000000180017910 f i mexOMPMask.obj
 0001:00016920       ??3@YAXPEAX0@Z             0000000180017920 f i mexOMPMask.obj
 0001:00016920       ??$destroy@PEAD@?$allocator@D@std@@QEAAXPEAPEAD@Z 0000000180017920 f i mexOMPMask.obj
 0001:00016920       ?_Adopt@_Iterator_base0@std@@QEAAXPEBX@Z 0000000180017920 f i mexOMPMask.obj
 0001:00016920       ?norm_2sq_cols@?$Data@_N@@UEBAXAEAV?$Vector@_N@@@Z 0000000180017920 f i mexOMPMask.obj
 0001:00016920       ?norm_2sq_cols@?$Data@M@@UEBAXAEAV?$Vector@M@@@Z 0000000180017920 f i mexOMPMask.obj
 0001:00016920       ?norm_2sq_cols@?$Data@N@@UEBAXAEAV?$Vector@N@@@Z 0000000180017920 f i mexOMPMask.obj
 0001:00016920       ?norm_2sq_cols@?$Data@_J@@UEBAXAEAV?$Vector@_J@@@Z 0000000180017920 f i mexOMPMask.obj
 0001:00016930       ?norm_2sq_cols@?$Matrix@M@@UEBAXAEAV?$Vector@M@@@Z 0000000180017930 f i mexOMPMask.obj
 0001:000169e0       ?norm_2sq_cols@?$Matrix@N@@UEBAXAEAV?$Vector@N@@@Z 00000001800179e0 f i mexOMPMask.obj
 0001:00016a90       ?norm_2sq_cols@?$Matrix@_J@@UEBAXAEAV?$Vector@_J@@@Z 0000000180017a90 f i mexOMPMask.obj
 0001:00016b40       ?norm_2sq_cols@?$Matrix@_N@@UEBAXAEAV?$Vector@_N@@@Z 0000000180017b40 f i mexOMPMask.obj
 0001:00016bf0       ?norm_2sq_cols@?$SpMatrix@M@@UEBAXAEAV?$Vector@M@@@Z 0000000180017bf0 f i mexOMPMask.obj
 0001:00016ca0       ?norm_2sq_cols@?$SpMatrix@N@@UEBAXAEAV?$Vector@N@@@Z 0000000180017ca0 f i mexOMPMask.obj
 0001:00016d50       ?nrm2sq@?$SpVector@M@@QEBAMXZ 0000000180017d50 f i mexOMPMask.obj
 0001:00016d90       ?nrm2sq@?$SpVector@N@@QEBANXZ 0000000180017d90 f i mexOMPMask.obj
 0001:00016dd0       ?nrm2sq@?$Vector@M@@QEBAMXZ 0000000180017dd0 f i mexOMPMask.obj
 0001:00016e10       ?nrm2sq@?$Vector@N@@QEBANXZ 0000000180017e10 f i mexOMPMask.obj
 0001:00016e50       ?nrm2sq@?$Vector@_J@@QEBA_JXZ 0000000180017e50 f i mexOMPMask.obj
 0001:00016e90       ?nrm2sq@?$Vector@_N@@QEBA_NXZ 0000000180017e90 f i mexOMPMask.obj
 0001:00016ed0       ?nzmax@?$SpMatrix@N@@QEBA_JXZ 0000000180017ed0 f i mexOMPMask.obj
 0001:00016ed0       ?nzmax@?$SpMatrix@M@@QEBA_JXZ 0000000180017ed0 f i mexOMPMask.obj
 0001:00016ee0       ?print@?$Matrix@M@@UEBAXAEBV?$basic_string@DU?$char_traits@D@std@@V?$allocator@D@2@@std@@@Z 0000000180017ee0 f i mexOMPMask.obj
 0001:00017010       ?print@?$Matrix@N@@UEBAXAEBV?$basic_string@DU?$char_traits@D@std@@V?$allocator@D@2@@std@@@Z 0000000180018010 f i mexOMPMask.obj
 0001:00017130       ?print@?$Matrix@_J@@UEBAXAEBV?$basic_string@DU?$char_traits@D@std@@V?$allocator@D@2@@std@@@Z 0000000180018130 f i mexOMPMask.obj
 0001:00017260       ?print@?$Matrix@_N@@UEBAXAEBV?$basic_string@DU?$char_traits@D@std@@V?$allocator@D@2@@std@@@Z 0000000180018260 f i mexOMPMask.obj
 0001:00017390       ?print@?$SpMatrix@M@@UEBAXAEBV?$basic_string@DU?$char_traits@D@std@@V?$allocator@D@2@@std@@@Z 0000000180018390 f i mexOMPMask.obj
 0001:00017540       ?print@?$SpMatrix@N@@UEBAXAEBV?$basic_string@DU?$char_traits@D@std@@V?$allocator@D@2@@std@@@Z 0000000180018540 f i mexOMPMask.obj
 0001:000176f0       ?r@?$SpVector@M@@QEBA_J_J@Z 00000001800186f0 f i mexOMPMask.obj
 0001:000176f0       ??A?$Vector@_J@@QEBA_J_J@Z 00000001800186f0 f i mexOMPMask.obj
 0001:000176f0       ?r@?$SpVector@N@@QEBA_J_J@Z 00000001800186f0 f i mexOMPMask.obj
 0001:00017710       ?rank1Update@?$Matrix@M@@QEAAXAEBV?$SpVector@M@@0M@Z 0000000180018710 f i mexOMPMask.obj
 0001:00017970       ?rank1Update@?$Matrix@M@@QEAAXAEBV?$Vector@M@@AEBV?$SpVector@M@@M@Z 0000000180018970 f i mexOMPMask.obj
 0001:00017a50       ?rank1Update@?$Matrix@N@@QEAAXAEBV?$SpVector@N@@0N@Z 0000000180018a50 f i mexOMPMask.obj
 0001:00017cb0       ?rank1Update@?$Matrix@N@@QEAAXAEBV?$Vector@N@@AEBV?$SpVector@N@@N@Z 0000000180018cb0 f i mexOMPMask.obj
 0001:00017d90       ?rank1Update@?$Matrix@_J@@QEAAXAEBV?$Vector@_J@@AEBV?$SpVector@_J@@_J@Z 0000000180018d90 f i mexOMPMask.obj
 0001:00017e60       ?rank1Update@?$Matrix@_N@@QEAAXAEBV?$Vector@_N@@AEBV?$SpVector@_N@@_N@Z 0000000180018e60 f i mexOMPMask.obj
 0001:00017f60       ?rawX@?$Vector@M@@QEBAPEAMXZ 0000000180018f60 f i mexOMPMask.obj
 0001:00017f60       ?size@?$basic_string@DU?$char_traits@D@std@@V?$allocator@D@2@@std@@QEBA_KXZ 0000000180018f60 f i mexOMPMask.obj
 0001:00017f60       ?rawR@?$SpVector@_N@@QEBAPEA_JXZ 0000000180018f60 f i mexOMPMask.obj
 0001:00017f60       ?rawX@?$Vector@_N@@QEBAPEA_NXZ 0000000180018f60 f i mexOMPMask.obj
 0001:00017f60       ?rawR@?$SpVector@M@@QEBAPEA_JXZ 0000000180018f60 f i mexOMPMask.obj
 0001:00017f60       ?rawX@?$Vector@_J@@QEBAPEA_JXZ 0000000180018f60 f i mexOMPMask.obj
 0001:00017f60       ?rawR@?$SpVector@N@@QEBAPEA_JXZ 0000000180018f60 f i mexOMPMask.obj
 0001:00017f60       ?rawX@?$Vector@N@@QEBAPEANXZ 0000000180018f60 f i mexOMPMask.obj
 0001:00017f60       ?rawR@?$SpVector@_J@@QEBAPEA_JXZ 0000000180018f60 f i mexOMPMask.obj
 0001:00017f70       ?rawX@?$SpVector@N@@QEBAPEANXZ 0000000180018f70 f i mexOMPMask.obj
 0001:00017f70       ?rawX@?$SpVector@M@@QEBAPEAMXZ 0000000180018f70 f i mexOMPMask.obj
 0001:00017f70       ?category@error_code@std@@QEBAAEBVerror_category@2@XZ 0000000180018f70 f i mexOMPMask.obj
 0001:00017f70       ?rawX@?$SpVector@_J@@QEBAPEA_JXZ 0000000180018f70 f i mexOMPMask.obj
 0001:00017f70       ?size@?$list@_JV?$allocator@_J@std@@@std@@QEBA_KXZ 0000000180018f70 f i mexOMPMask.obj
 0001:00017f70       ?rawX@?$SpVector@_N@@QEBAPEA_NXZ 0000000180018f70 f i mexOMPMask.obj
 0001:00017f70       ?category@error_condition@std@@QEBAAEBVerror_category@2@XZ 0000000180018f70 f i mexOMPMask.obj
 0001:00017f80       ?refCol@?$Matrix@M@@QEBAX_JAEAV?$Vector@M@@@Z 0000000180018f80 f i mexOMPMask.obj
 0001:00017ff0       ?refCol@?$Matrix@N@@QEBAX_JAEAV?$Vector@N@@@Z 0000000180018ff0 f i mexOMPMask.obj
 0001:00017ff0       ?refCol@?$Matrix@_J@@QEBAX_JAEAV?$Vector@_J@@@Z 0000000180018ff0 f i mexOMPMask.obj
 0001:00018060       ?refCol@?$Matrix@_N@@QEBAX_JAEAV?$Vector@_N@@@Z 0000000180019060 f i mexOMPMask.obj
 0001:000180d0       ?refCol@?$SpMatrix@M@@QEBAX_JAEAV?$SpVector@M@@@Z 00000001800190d0 f i mexOMPMask.obj
 0001:000181a0       ?refCol@?$SpMatrix@_J@@QEBAX_JAEAV?$SpVector@_J@@@Z 00000001800191a0 f i mexOMPMask.obj
 0001:000181a0       ?refCol@?$SpMatrix@N@@QEBAX_JAEAV?$SpVector@N@@@Z 00000001800191a0 f i mexOMPMask.obj
 0001:00018270       ?refCol@?$SpMatrix@_N@@QEBAX_JAEAV?$SpVector@_N@@@Z 0000000180019270 f i mexOMPMask.obj
 0001:00018340       ?resize@?$Matrix@M@@QEAAX_J0_N@Z 0000000180019340 f i mexOMPMask.obj
 0001:00018410       ?resize@?$Matrix@N@@QEAAX_J0_N@Z 0000000180019410 f i mexOMPMask.obj
 0001:00018410       ?resize@?$Matrix@_J@@QEAAX_J0_N@Z 0000000180019410 f i mexOMPMask.obj
 0001:000184e0       ?resize@?$Matrix@_N@@QEAAX_J0_N@Z 00000001800194e0 f i mexOMPMask.obj
 0001:00018590       ?resize@?$SpMatrix@M@@QEAAX_J00@Z 0000000180019590 f i mexOMPMask.obj
 0001:00018720       ?resize@?$SpMatrix@N@@QEAAX_J00@Z 0000000180019720 f i mexOMPMask.obj
 0001:000188b0       ?resize@?$Vector@M@@QEAAX_J@Z 00000001800198b0 f i mexOMPMask.obj
 0001:00018930       ?resize@?$Vector@N@@QEAAX_J@Z 0000000180019930 f i mexOMPMask.obj
 0001:00018930       ?resize@?$Vector@_J@@QEAAX_J@Z 0000000180019930 f i mexOMPMask.obj
 0001:000189b0       ?resize@?$Vector@_N@@QEAAX_J@Z 00000001800199b0 f i mexOMPMask.obj
 0001:00018a20       ?scal@?$Matrix@M@@QEAAXM@Z 0000000180019a20 f i mexOMPMask.obj
 0001:00018a70       ?scal@?$Matrix@N@@QEAAXN@Z 0000000180019a70 f i mexOMPMask.obj
 0001:00018ac0       ?scal@?$Matrix@_J@@QEAAX_J@Z 0000000180019ac0 f i mexOMPMask.obj
 0001:00018b10       ?scal@?$Matrix@_N@@QEAAX_N@Z 0000000180019b10 f i mexOMPMask.obj
 0001:00018b60       ?scal@?$Vector@M@@QEAAXM@Z 0000000180019b60 f i mexOMPMask.obj
 0001:00018ba0       ?scal@?$Vector@N@@QEAAXN@Z 0000000180019ba0 f i mexOMPMask.obj
 0001:00018be0       ?scal@?$Vector@_J@@QEAAX_J@Z 0000000180019be0 f i mexOMPMask.obj
 0001:00018c20       ?scal@?$Vector@_N@@QEAAX_N@Z 0000000180019c20 f i mexOMPMask.obj
 0001:00018c60       ?set@?$Vector@M@@QEAAXM@Z  0000000180019c60 f i mexOMPMask.obj
 0001:00018cc0       ?set@?$Vector@N@@QEAAXN@Z  0000000180019cc0 f i mexOMPMask.obj
 0001:00018d20       ?set@?$Vector@_J@@QEAAX_J@Z 0000000180019d20 f i mexOMPMask.obj
 0001:00018d70       ?setMatrices@?$ProdMatrix@M@@QEAAXAEBV?$Matrix@M@@_N@Z 0000000180019d70 f i mexOMPMask.obj
 0001:00018e40       ?setMatrices@?$ProdMatrix@N@@QEAAXAEBV?$Matrix@N@@_N@Z 0000000180019e40 f i mexOMPMask.obj
 0001:00018f10       ?setZeros@?$Matrix@M@@QEAAXXZ 0000000180019f10 f i mexOMPMask.obj
 0001:00018f50       ?setZeros@?$Matrix@N@@QEAAXXZ 0000000180019f50 f i mexOMPMask.obj
 0001:00018f50       ?setZeros@?$Matrix@_J@@QEAAXXZ 0000000180019f50 f i mexOMPMask.obj
 0001:00018f90       ?setZeros@?$Matrix@_N@@QEAAXXZ 0000000180019f90 f i mexOMPMask.obj
 0001:00018fd0       ?setZeros@?$Vector@M@@QEAAXXZ 0000000180019fd0 f i mexOMPMask.obj
 0001:00019000       ?setZeros@?$Vector@N@@QEAAXXZ 000000018001a000 f i mexOMPMask.obj
 0001:00019000       ?setZeros@?$Vector@_J@@QEAAXXZ 000000018001a000 f i mexOMPMask.obj
 0001:00019030       ?setZeros@?$Vector@_N@@QEAAXXZ 000000018001a030 f i mexOMPMask.obj
 0001:00019060       ?setm@?$Matrix@M@@QEAAX_J@Z 000000018001a060 f i mexOMPMask.obj
 0001:00019060       ?setm@?$Matrix@N@@QEAAX_J@Z 000000018001a060 f i mexOMPMask.obj
 0001:00019080       ?setn@?$Matrix@M@@QEAAX_J@Z 000000018001a080 f i mexOMPMask.obj
 0001:00019080       ?setn@?$Matrix@N@@QEAAX_J@Z 000000018001a080 f i mexOMPMask.obj
 0001:000190a0       ?setn@?$Vector@M@@QEAAX_J@Z 000000018001a0a0 f i mexOMPMask.obj
 0001:000190a0       ?setn@?$Vector@N@@QEAAX_J@Z 000000018001a0a0 f i mexOMPMask.obj
 0001:000190c0       ?sqr@?$Vector@M@@QEAAXAEBV1@@Z 000000018001a0c0 f i mexOMPMask.obj
 0001:00019110       ?sqr@?$Vector@N@@QEAAXAEBV1@@Z 000000018001a110 f i mexOMPMask.obj
 0001:00019160       ?sqrt@@YAMM@Z              000000018001a160 f i mexOMPMask.obj
 0001:00019180       ?sub@?$Vector@M@@QEAAXAEBV1@@Z 000000018001a180 f i mexOMPMask.obj
 0001:000191c0       ?sub@?$Vector@N@@QEAAXAEBV1@@Z 000000018001a1c0 f i mexOMPMask.obj
 0001:00019200       ?system_category@std@@YAAEBVerror_category@1@XZ 000000018001a200 f i mexOMPMask.obj
 0001:00019210       ?toFull@?$SpMatrix@M@@QEBAXAEAV?$Matrix@M@@@Z 000000018001a210 f i mexOMPMask.obj
 0001:00019310       ?toFull@?$SpMatrix@N@@QEBAXAEAV?$Matrix@N@@@Z 000000018001a310 f i mexOMPMask.obj
 0001:00019410       ?v@?$SpVector@M@@QEBAM_J@Z 000000018001a410 f i mexOMPMask.obj
 0001:00019430       ?v@?$SpVector@N@@QEBAN_J@Z 000000018001a430 f i mexOMPMask.obj
 0001:00019450       ?value@error_code@std@@QEBAHXZ 000000018001a450 f i mexOMPMask.obj
 0001:00019450       ?value@error_condition@std@@QEBAHXZ 000000018001a450 f i mexOMPMask.obj
 0001:00019460       fabsf                      000000018001a460 f i mexOMPMask.obj
 0001:0001947e       mxGetClassID               000000018001a47e f   libmx:libmx.dll
 0001:00019484       mxIsStruct                 000000018001a484 f   libmx:libmx.dll
 0001:0001948a       mxIsComplex                000000018001a48a f   libmx:libmx.dll
 0001:00019490       mxIsSparse                 000000018001a490 f   libmx:libmx.dll
 0001:00019496       mxGetDimensions_730        000000018001a496 f   libmx:libmx.dll
 0001:0001949c       mxGetPr                    000000018001a49c f   libmx:libmx.dll
 0001:000194a2       mxGetScalar                000000018001a4a2 f   libmx:libmx.dll
 0001:000194a8       mxGetIr_730                000000018001a4a8 f   libmx:libmx.dll
 0001:000194ae       mxGetJc_730                000000018001a4ae f   libmx:libmx.dll
 0001:000194b4       mxGetField_730             000000018001a4b4 f   libmx:libmx.dll
 0001:000194ba       mxCreateNumericMatrix_730  000000018001a4ba f   libmx:libmx.dll
 0001:000194c0       mxCreateSparse_730         000000018001a4c0 f   libmx:libmx.dll
 0001:000194c6       mexErrMsgTxt               000000018001a4c6 f   libmex:libmex.dll
 0001:000194cc       mexPrintf                  000000018001a4cc f   libmex:libmex.dll
 0001:000194d2       mexEvalString              000000018001a4d2 f   libmex:libmex.dll
 0001:000194d8       dcopy                      000000018001a4d8 f   libmwblas:libmwblas.dll
 0001:000194de       scopy                      000000018001a4de f   libmwblas:libmwblas.dll
 0001:000194e4       daxpy                      000000018001a4e4 f   libmwblas:libmwblas.dll
 0001:000194ea       saxpy                      000000018001a4ea f   libmwblas:libmwblas.dll
 0001:000194f0       dscal                      000000018001a4f0 f   libmwblas:libmwblas.dll
 0001:000194f6       sscal                      000000018001a4f6 f   libmwblas:libmwblas.dll
 0001:000194fc       ddot                       000000018001a4fc f   libmwblas:libmwblas.dll
 0001:00019502       sdot                       000000018001a502 f   libmwblas:libmwblas.dll
 0001:00019508       dgemv                      000000018001a508 f   libmwblas:libmwblas.dll
 0001:0001950e       sgemv                      000000018001a50e f   libmwblas:libmwblas.dll
 0001:00019514       dtrmv                      000000018001a514 f   libmwblas:libmwblas.dll
 0001:0001951a       strmv                      000000018001a51a f   libmwblas:libmwblas.dll
 0001:00019520       dgemm                      000000018001a520 f   libmwblas:libmwblas.dll
 0001:00019526       sgemm                      000000018001a526 f   libmwblas:libmwblas.dll
 0001:0001952c       dsyrk                      000000018001a52c f   libmwblas:libmwblas.dll
 0001:00019532       ssyrk                      000000018001a532 f   libmwblas:libmwblas.dll
 0001:00019538       idamax                     000000018001a538 f   libmwblas:libmwblas.dll
 0001:0001953e       isamax                     000000018001a53e f   libmwblas:libmwblas.dll
 0001:00019544       ??_U@YAPEAX_K@Z            000000018001a544 f   msvcprt:newaop_s.obj
 0001:0001954c       ??_L@YAXPEAX_KHP6AX0@Z2@Z  000000018001a54c f   MSVCRT:ehvecctr.obj
 0001:000195b0       ??_M@YAXPEAX_KHP6AX0@Z@Z   000000018001a5b0 f   MSVCRT:ehvecdtr.obj
 0001:00019610       ?__ArrayUnwind@@YAXPEAX_KHP6AX0@Z@Z 000000018001a610 f   MSVCRT:ehvecdtr.obj
 0001:0001965a       _purecall                  000000018001a65a f   MSVCRT:MSVCR110.dll
 0001:00019660       ??2@YAPEAX_K@Z             000000018001a660 f   MSVCRT:MSVCR110.dll
 0001:00019666       ??3@YAXPEAX@Z              000000018001a666 f   MSVCRT:MSVCR110.dll
 0001:0001966c       __atonexitinit             000000018001a66c f   MSVCRT:atonexit.obj
 0001:000196bc       _onexit                    000000018001a6bc f   MSVCRT:atonexit.obj
 0001:0001976c       atexit                     000000018001a76c f   MSVCRT:atonexit.obj
 0001:00019784       memcpy                     000000018001a784 f   MSVCRT:MSVCR110.dll
 0001:0001978a       memset                     000000018001a78a f   MSVCRT:MSVCR110.dll
 0001:00019790       strlen                     000000018001a790 f   MSVCRT:MSVCR110.dll
 0001:00019796       fabs                       000000018001a796 f   MSVCRT:MSVCR110.dll
 0001:0001979c       sqrt                       000000018001a79c f   MSVCRT:MSVCR110.dll
 0001:000197a2       ??_V@YAXPEAX@Z             000000018001a7a2 f   MSVCRT:MSVCR110.dll
 0001:000197a8       _CxxThrowException         000000018001a7a8 f   MSVCRT:MSVCR110.dll
 0001:000197ae       __CxxFrameHandler3         000000018001a7ae f   MSVCRT:MSVCR110.dll
 0001:000197b4       ??_Etype_info@@UEAAPEAXI@Z 000000018001a7b4 f i MSVCRT:ti_inst.obj
 0001:00019880       _CRT_INIT                  000000018001a880 f   MSVCRT:crtdll.obj
 0001:00019acc       _DllMainCRTStartup         000000018001aacc f   MSVCRT:crtdll.obj
 0001:00019c42       __C_specific_handler       000000018001ac42 f   MSVCRT:MSVCR110.dll
 0001:00019c48       ?terminate@@YAXXZ          000000018001ac48 f   MSVCRT:MSVCR110.dll
 0001:00019c4e       _lock                      000000018001ac4e f   MSVCRT:MSVCR110.dll
 0001:00019c54       _unlock                    000000018001ac54 f   MSVCRT:MSVCR110.dll
 0001:00019c5a       __dllonexit                000000018001ac5a f   MSVCRT:MSVCR110.dll
 0001:00019c60       __CppXcptFilter            000000018001ac60 f   MSVCRT:MSVCR110.dll
 0001:00019c66       _amsg_exit                 000000018001ac66 f   MSVCRT:MSVCR110.dll
 0001:00019c70       _FindPESection             000000018001ac70 f   MSVCRT:pesect.obj
 0001:00019cc0       _IsNonwritableInCurrentImage 000000018001acc0 f   MSVCRT:pesect.obj
 0001:00019d10       _ValidateImageBase         000000018001ad10 f   MSVCRT:pesect.obj
 0001:00019d40       __security_init_cookie     000000018001ad40 f   MSVCRT:gs_support.obj
 0001:00019dec       DllMain                    000000018001adec f   MSVCRT:dllmain.obj
 0001:00019e10       _RTC_Initialize            000000018001ae10 f   MSVCRT:initsect.obj
 0001:00019e48       _RTC_Terminate             000000018001ae48 f   MSVCRT:initsect.obj
 0001:00019e80       _initterm                  000000018001ae80 f   MSVCRT:MSVCR110.dll
 0001:00019e86       _initterm_e                000000018001ae86 f   MSVCRT:MSVCR110.dll
 0001:00019e8c       __clean_type_info_names    000000018001ae8c f   MSVCRT:tncleanup.obj
 0001:00019e98       ??1type_info@@UEAA@XZ      000000018001ae98 f   MSVCRT:MSVCR110.dll
 0001:00019e98       ?_type_info_dtor_internal_method@type_info@@QEAAXXZ 000000018001ae98 f   MSVCRT:MSVCR110.dll
 0001:00019e9e       __clean_type_info_names_internal 000000018001ae9e f   MSVCRT:MSVCR110.dll
 0002:00000000       __imp_DisableThreadLibraryCalls 000000018001d000     kernel32:KERNEL32.dll
 0002:00000008       __imp_GetCurrentThreadId   000000018001d008     kernel32:KERNEL32.dll
 0002:00000010       __imp_GetCurrentProcessId  000000018001d010     kernel32:KERNEL32.dll
 0002:00000018       __imp_QueryPerformanceCounter 000000018001d018     kernel32:KERNEL32.dll
 0002:00000020       __imp_DecodePointer        000000018001d020     kernel32:KERNEL32.dll
 0002:00000028       __imp_EncodePointer        000000018001d028     kernel32:KERNEL32.dll
 0002:00000030       __imp_GetSystemTimeAsFileTime 000000018001d030     kernel32:KERNEL32.dll
 0002:00000038       \177KERNEL32_NULL_THUNK_DATA 000000018001d038     kernel32:KERNEL32.dll
 0002:00000040       __imp_?flush@std@@YAAEAV?$basic_ostream@DU?$char_traits@D@std@@@1@AEAV21@@Z 000000018001d040     msvcprt:MSVCP110.dll
 0002:00000048       __imp_?cerr@std@@3V?$basic_ostream@DU?$char_traits@D@std@@@1@A 000000018001d048     msvcprt:MSVCP110.dll
 0002:00000050       __imp_?flush@?$basic_ostream@DU?$char_traits@D@std@@@std@@QEAAAEAV12@XZ 000000018001d050     msvcprt:MSVCP110.dll
 0002:00000058       __imp_??6?$basic_ostream@DU?$char_traits@D@std@@@std@@QEAAAEAV01@N@Z 000000018001d058     msvcprt:MSVCP110.dll
 0002:00000060       __imp_??6?$basic_ostream@DU?$char_traits@D@std@@@std@@QEAAAEAV01@M@Z 000000018001d060     msvcprt:MSVCP110.dll
 0002:00000068       __imp_??6?$basic_ostream@DU?$char_traits@D@std@@@std@@QEAAAEAV01@_J@Z 000000018001d068     msvcprt:MSVCP110.dll
 0002:00000070       __imp_??6?$basic_ostream@DU?$char_traits@D@std@@@std@@QEAAAEAV01@P6AAEAV01@AEAV01@@Z@Z 000000018001d070     msvcprt:MSVCP110.dll
 0002:00000078       __imp_?_Osfx@?$basic_ostream@DU?$char_traits@D@std@@@std@@QEAAXXZ 000000018001d078     msvcprt:MSVCP110.dll
 0002:00000080       __imp_?fill@?$basic_ios@DU?$char_traits@D@std@@@std@@QEBADXZ 000000018001d080     msvcprt:MSVCP110.dll
 0002:00000088       __imp_?endl@std@@YAAEAV?$basic_ostream@DU?$char_traits@D@std@@@1@AEAV21@@Z 000000018001d088     msvcprt:MSVCP110.dll
 0002:00000090       __imp_?rdbuf@?$basic_ios@DU?$char_traits@D@std@@@std@@QEBAPEAV?$basic_streambuf@DU?$char_traits@D@std@@@2@XZ 000000018001d090     msvcprt:MSVCP110.dll
 0002:00000098       __imp_?tie@?$basic_ios@DU?$char_traits@D@std@@@std@@QEBAPEAV?$basic_ostream@DU?$char_traits@D@std@@@2@XZ 000000018001d098     msvcprt:MSVCP110.dll
 0002:000000a0       __imp_?setstate@?$basic_ios@DU?$char_traits@D@std@@@std@@QEAAXH_N@Z 000000018001d0a0     msvcprt:MSVCP110.dll
 0002:000000a8       __imp_?sputn@?$basic_streambuf@DU?$char_traits@D@std@@@std@@QEAA_JPEBD_J@Z 000000018001d0a8     msvcprt:MSVCP110.dll
 0002:000000b0       __imp_?sputc@?$basic_streambuf@DU?$char_traits@D@std@@@std@@QEAAHD@Z 000000018001d0b0     msvcprt:MSVCP110.dll
 0002:000000b8       __imp_?width@ios_base@std@@QEAA_J_J@Z 000000018001d0b8     msvcprt:MSVCP110.dll
 0002:000000c0       __imp_?width@ios_base@std@@QEBA_JXZ 000000018001d0c0     msvcprt:MSVCP110.dll
 0002:000000c8       __imp_?flags@ios_base@std@@QEBAHXZ 000000018001d0c8     msvcprt:MSVCP110.dll
 0002:000000d0       __imp_?good@ios_base@std@@QEBA_NXZ 000000018001d0d0     msvcprt:MSVCP110.dll
 0002:000000d8       __imp_?_Winerror_map@std@@YAPEBDH@Z 000000018001d0d8     msvcprt:MSVCP110.dll
 0002:000000e0       __imp_?_Syserror_map@std@@YAPEBDH@Z 000000018001d0e0     msvcprt:MSVCP110.dll
 0002:000000e8       __imp_??0id@locale@std@@QEAA@_K@Z 000000018001d0e8     msvcprt:MSVCP110.dll
 0002:000000f0       __imp_?_Xout_of_range@std@@YAXPEBD@Z 000000018001d0f0     msvcprt:MSVCP110.dll
 0002:000000f8       __imp_?_Xlength_error@std@@YAXPEBD@Z 000000018001d0f8     msvcprt:MSVCP110.dll
 0002:00000100       __imp_?_Xbad_alloc@std@@YAXXZ 000000018001d100     msvcprt:MSVCP110.dll
 0002:00000108       __imp_?uncaught_exception@std@@YA_NXZ 000000018001d108     msvcprt:MSVCP110.dll
 0002:00000110       \177MSVCP110_NULL_THUNK_DATA 000000018001d110     msvcprt:MSVCP110.dll
 0002:00000118       __imp_malloc               000000018001d118     MSVCRT:MSVCR110.dll
 0002:00000120       __imp__onexit              000000018001d120     MSVCRT:MSVCR110.dll
 0002:00000128       __imp___dllonexit          000000018001d128     MSVCRT:MSVCR110.dll
 0002:00000130       __imp__calloc_crt          000000018001d130     MSVCRT:MSVCR110.dll
 0002:00000138       __imp__unlock              000000018001d138     MSVCRT:MSVCR110.dll
 0002:00000140       __imp__lock                000000018001d140     MSVCRT:MSVCR110.dll
 0002:00000148       __imp_?terminate@@YAXXZ    000000018001d148     MSVCRT:MSVCR110.dll
 0002:00000150       __imp___C_specific_handler 000000018001d150     MSVCRT:MSVCR110.dll
 0002:00000158       __imp___CxxFrameHandler3   000000018001d158     MSVCRT:MSVCR110.dll
 0002:00000160       __imp__CxxThrowException   000000018001d160     MSVCRT:MSVCR110.dll
 0002:00000168       __imp__tzset               000000018001d168     MSVCRT:MSVCR110.dll
 0002:00000170       __imp___timezone           000000018001d170     MSVCRT:MSVCR110.dll
 0002:00000178       __imp___daylight           000000018001d178     MSVCRT:MSVCR110.dll
 0002:00000180       __imp_??_V@YAXPEAX@Z       000000018001d180     MSVCRT:MSVCR110.dll
 0002:00000188       __imp_sqrtf                000000018001d188     MSVCRT:MSVCR110.dll
 0002:00000190       __imp_sqrt                 000000018001d190     MSVCRT:MSVCR110.dll
 0002:00000198       __imp_fabs                 000000018001d198     MSVCRT:MSVCR110.dll
 0002:000001a0       __imp_memmove              000000018001d1a0     MSVCRT:MSVCR110.dll
 0002:000001a8       __imp_strlen               000000018001d1a8     MSVCRT:MSVCR110.dll
 0002:000001b0       __imp_memset               000000018001d1b0     MSVCRT:MSVCR110.dll
 0002:000001b8       __imp_memcpy               000000018001d1b8     MSVCRT:MSVCR110.dll
 0002:000001c0       __imp_free                 000000018001d1c0     MSVCRT:MSVCR110.dll
 0002:000001c8       __imp_??3@YAXPEAX@Z        000000018001d1c8     MSVCRT:MSVCR110.dll
 0002:000001d0       __imp___clean_type_info_names_internal 000000018001d1d0     MSVCRT:MSVCR110.dll
 0002:000001d8       __imp_?_type_info_dtor_internal_method@type_info@@QEAAXXZ 000000018001d1d8     MSVCRT:MSVCR110.dll
 0002:000001e0       __imp__initterm_e          000000018001d1e0     MSVCRT:MSVCR110.dll
 0002:000001e8       __imp__initterm            000000018001d1e8     MSVCRT:MSVCR110.dll
 0002:000001f0       __imp__malloc_crt          000000018001d1f0     MSVCRT:MSVCR110.dll
 0002:000001f8       __imp__amsg_exit           000000018001d1f8     MSVCRT:MSVCR110.dll
 0002:00000200       __imp__purecall            000000018001d200     MSVCRT:MSVCR110.dll
 0002:00000208       __imp_??2@YAPEAX_K@Z       000000018001d208     MSVCRT:MSVCR110.dll
 0002:00000210       __imp___CppXcptFilter      000000018001d210     MSVCRT:MSVCR110.dll
 0002:00000218       \177MSVCR110_NULL_THUNK_DATA 000000018001d218     MSVCRT:MSVCR110.dll
 0002:00000220       __imp_mexPrintf            000000018001d220     libmex:libmex.dll
 0002:00000228       __imp_mexErrMsgTxt         000000018001d228     libmex:libmex.dll
 0002:00000230       __imp_mexEvalString        000000018001d230     libmex:libmex.dll
 0002:00000238       \177libmex_NULL_THUNK_DATA 000000018001d238     libmex:libmex.dll
 0002:00000240       __imp_dcopy                000000018001d240     libmwblas:libmwblas.dll
 0002:00000248       __imp_scopy                000000018001d248     libmwblas:libmwblas.dll
 0002:00000250       __imp_daxpy                000000018001d250     libmwblas:libmwblas.dll
 0002:00000258       __imp_saxpy                000000018001d258     libmwblas:libmwblas.dll
 0002:00000260       __imp_dscal                000000018001d260     libmwblas:libmwblas.dll
 0002:00000268       __imp_sscal                000000018001d268     libmwblas:libmwblas.dll
 0002:00000270       __imp_ddot                 000000018001d270     libmwblas:libmwblas.dll
 0002:00000278       __imp_idamax               000000018001d278     libmwblas:libmwblas.dll
 0002:00000280       __imp_dgemv                000000018001d280     libmwblas:libmwblas.dll
 0002:00000288       __imp_sgemv                000000018001d288     libmwblas:libmwblas.dll
 0002:00000290       __imp_dtrmv                000000018001d290     libmwblas:libmwblas.dll
 0002:00000298       __imp_strmv                000000018001d298     libmwblas:libmwblas.dll
 0002:000002a0       __imp_dgemm                000000018001d2a0     libmwblas:libmwblas.dll
 0002:000002a8       __imp_sgemm                000000018001d2a8     libmwblas:libmwblas.dll
 0002:000002b0       __imp_dsyrk                000000018001d2b0     libmwblas:libmwblas.dll
 0002:000002b8       __imp_ssyrk                000000018001d2b8     libmwblas:libmwblas.dll
 0002:000002c0       __imp_isamax               000000018001d2c0     libmwblas:libmwblas.dll
 0002:000002c8       __imp_sdot                 000000018001d2c8     libmwblas:libmwblas.dll
 0002:000002d0       \177libmwblas_NULL_THUNK_DATA 000000018001d2d0     libmwblas:libmwblas.dll
 0002:000002d8       __imp_mxGetScalar          000000018001d2d8     libmx:libmx.dll
 0002:000002e0       __imp_mxGetIr_730          000000018001d2e0     libmx:libmx.dll
 0002:000002e8       __imp_mxGetJc_730          000000018001d2e8     libmx:libmx.dll
 0002:000002f0       __imp_mxGetField_730       000000018001d2f0     libmx:libmx.dll
 0002:000002f8       __imp_mxCreateNumericMatrix_730 000000018001d2f8     libmx:libmx.dll
 0002:00000300       __imp_mxCreateSparse_730   000000018001d300     libmx:libmx.dll
 0002:00000308       __imp_mxGetPr              000000018001d308     libmx:libmx.dll
 0002:00000310       __imp_mxGetDimensions_730  000000018001d310     libmx:libmx.dll
 0002:00000318       __imp_mxIsSparse           000000018001d318     libmx:libmx.dll
 0002:00000320       __imp_mxIsComplex          000000018001d320     libmx:libmx.dll
 0002:00000328       __imp_mxIsStruct           000000018001d328     libmx:libmx.dll
 0002:00000330       __imp_mxGetClassID         000000018001d330     libmx:libmx.dll
 0002:00000338       \177libmx_NULL_THUNK_DATA  000000018001d338     libmx:libmx.dll
 0002:00000340       __xc_a                     000000018001d340     MSVCRT:cinitexe.obj
 0002:00000380       __xc_z                     000000018001d380     MSVCRT:cinitexe.obj
 0002:00000388       __xi_a                     000000018001d388     MSVCRT:cinitexe.obj
 0002:000003a0       __xi_z                     000000018001d3a0     MSVCRT:cinitexe.obj
 0002:00000de8       ??_7error_category@std@@6B@ 000000018001dde8     mexOMPMask.obj
 0002:00000e20       ??_7_Generic_error_category@std@@6B@ 000000018001de20     mexOMPMask.obj
 0002:00000e50       ??_C@_07DCLBNMLN@generic?$AA@ 000000018001de50     mexOMPMask.obj
 0002:00000e58       ??_C@_0O@BFJCFAAK@unknown?5error?$AA@ 000000018001de58     mexOMPMask.obj
 0002:00000e70       ??_7_Iostream_error_category@std@@6B@ 000000018001de70     mexOMPMask.obj
 0002:00000ea0       ??_C@_08LLGCOLLL@iostream?$AA@ 000000018001dea0     mexOMPMask.obj
 0002:00000eb0       ??_C@_0BG@PADBLCHM@iostream?5stream?5error?$AA@ 000000018001deb0     mexOMPMask.obj
 0002:00000ed0       ??_7_System_error_category@std@@6B@ 000000018001ded0     mexOMPMask.obj
 0002:00000f00       ??_C@_06FHFOAHML@system?$AA@ 000000018001df00     mexOMPMask.obj
 0002:00000f10       ??_7?$Vector@N@@6B@        000000018001df10     mexOMPMask.obj
 0002:00000f20       ??_7?$Vector@M@@6B@        000000018001df20     mexOMPMask.obj
 0002:00000f30       ??_7?$Vector@H@@6B@        000000018001df30     mexOMPMask.obj
 0002:00000f40       ??_7?$Vector@_N@@6B@       000000018001df40     mexOMPMask.obj
 0002:00000f50       ??_7?$Vector@_J@@6B@       000000018001df50     mexOMPMask.obj
 0002:00000f58       ??_C@_0BI@CFPLBAOH@invalid?5string?5position?$AA@ 000000018001df58     mexOMPMask.obj
 0002:00000f70       ??_C@_0BA@JFNIOLAK@string?5too?5long?$AA@ 000000018001df70     mexOMPMask.obj
 0002:00000f80       ??_C@_0CF@DFCBOHLK@type?5of?5argument?51?5is?5not?5consis@ 000000018001df80     mexOMPMask.obj
 0002:00000fa8       ??_C@_0BK@PFHDMLCH@argument?51?5should?5be?5full?$AA@ 000000018001dfa8     mexOMPMask.obj
 0002:00000fc8       ??_C@_0CF@JKIIKKHA@type?5of?5argument?52?5is?5not?5consis@ 000000018001dfc8     mexOMPMask.obj
 0002:00000ff0       ??_C@_0BK@KGOJJAKD@argument?52?5should?5be?5full?$AA@ 000000018001dff0     mexOMPMask.obj
 0002:00001010       ??_C@_0CF@BPLOJOOA@type?5of?5argument?53?5should?5be?5boo@ 000000018001e010     mexOMPMask.obj
 0002:00001038       ??_C@_0BK@CBEPFLOA@argument?53?5should?5be?5full?$AA@ 000000018001e038     mexOMPMask.obj
 0002:00001058       ??_C@_0BM@OFEAEJCF@argument?54?5should?5be?5struct?$AA@ 000000018001e058     mexOMPMask.obj
 0002:00001078       ??_C@_0CC@HPCOLNMD@argument?5sizes?5are?5not?5consisten@ 000000018001e078     mexOMPMask.obj
 0002:000010a8       ??_7?$Data@N@@6B@          000000018001e0a8     mexOMPMask.obj
 0002:000010f8       ??_7?$AbstractMatrix@N@@6B@ 000000018001e0f8     mexOMPMask.obj
 0002:00001148       ??_7?$AbstractMatrixB@N@@6B@ 000000018001e148     mexOMPMask.obj
 0002:000011c8       ??_7?$Matrix@N@@6B?$Data@N@@@ 000000018001e1c8     mexOMPMask.obj
 0002:00001218       ??_7?$Matrix@N@@6B?$AbstractMatrix@N@@@ 000000018001e218     mexOMPMask.obj
 0002:00001268       ??_7?$Matrix@N@@6B?$AbstractMatrixB@N@@@ 000000018001e268     mexOMPMask.obj
 0002:000012e8       ??_7?$Data@_N@@6B@         000000018001e2e8     mexOMPMask.obj
 0002:00001338       ??_7?$AbstractMatrix@_N@@6B@ 000000018001e338     mexOMPMask.obj
 0002:00001388       ??_7?$AbstractMatrixB@_N@@6B@ 000000018001e388     mexOMPMask.obj
 0002:00001408       ??_7?$Matrix@_N@@6B?$Data@_N@@@ 000000018001e408     mexOMPMask.obj
 0002:00001458       ??_7?$Matrix@_N@@6B?$AbstractMatrix@_N@@@ 000000018001e458     mexOMPMask.obj
 0002:000014a8       ??_7?$Matrix@_N@@6B?$AbstractMatrixB@_N@@@ 000000018001e4a8     mexOMPMask.obj
 0002:00001528       ??_7?$SpMatrix@N@@6B?$Data@N@@@ 000000018001e528     mexOMPMask.obj
 0002:00001578       ??_7?$SpMatrix@N@@6B?$AbstractMatrixB@N@@@ 000000018001e578     mexOMPMask.obj
 0002:000015e8       ??_C@_0L@JNMNKJOE@numThreads?$AA@ 000000018001e5e8     mexOMPMask.obj
 0002:000015f4       ??_C@_01OCOKONAJ@L?$AA@    000000018001e5f4     mexOMPMask.obj
 0002:000015f8       ??_C@_03ICKAGFLH@eps?$AA@  000000018001e5f8     mexOMPMask.obj
 0002:000015fc       ??_C@_06COJIGPIB@lambda?$AA@ 000000018001e5fc     mexOMPMask.obj
 0002:00001608       ??_C@_0CL@IGOMFOHA@You?5should?5either?5provide?5L?0?5eps@ 000000018001e608     mexOMPMask.obj
 0002:00001638       ??_C@_0CA@KHHLBPMD@Type?5of?5param?4L?5should?5be?5int32?$AA@ 000000018001e638     mexOMPMask.obj
 0002:00001668       ??_7?$Data@M@@6B@          000000018001e668     mexOMPMask.obj
 0002:000016b8       ??_7?$AbstractMatrix@M@@6B@ 000000018001e6b8     mexOMPMask.obj
 0002:00001708       ??_7?$AbstractMatrixB@M@@6B@ 000000018001e708     mexOMPMask.obj
 0002:00001788       ??_7?$Matrix@M@@6B?$Data@M@@@ 000000018001e788     mexOMPMask.obj
 0002:000017d8       ??_7?$Matrix@M@@6B?$AbstractMatrix@M@@@ 000000018001e7d8     mexOMPMask.obj
 0002:00001828       ??_7?$Matrix@M@@6B?$AbstractMatrixB@M@@@ 000000018001e828     mexOMPMask.obj
 0002:000018a8       ??_7?$SpMatrix@M@@6B?$Data@M@@@ 000000018001e8a8     mexOMPMask.obj
 0002:000018f8       ??_7?$SpMatrix@M@@6B?$AbstractMatrixB@M@@@ 000000018001e8f8     mexOMPMask.obj
 0002:00001968       ??_C@_03LBOPJCJH@?5x?5?$AA@ 000000018001e968     mexOMPMask.obj
 0002:00001970       ??_C@_07EADNIFBO@?$CF10?45g?5?$AA@ 000000018001e970     mexOMPMask.obj
 0002:00001978       ??_C@_02JIKNIHJJ@?6?5?$AA@ 000000018001e978     mexOMPMask.obj
 0002:0000197c       ??_C@_03NKFKBEPL@?5?0?5?$AA@ 000000018001e97c     mexOMPMask.obj
 0002:00001980       ??_C@_04OMAJLIMI@?$CJ?5?$DN?5?$AA@ 000000018001e980     mexOMPMask.obj
 0002:00001988       ??_C@_01IHBHIGKO@?0?$AA@   000000018001e988     mexOMPMask.obj
 0002:0000198c       ??_C@_01ODHLEDKK@?$CI?$AA@ 000000018001e98c     mexOMPMask.obj
 0002:00001998       ??_7?$Data@_J@@6B@         000000018001e998     mexOMPMask.obj
 0002:000019e8       ??_7?$AbstractMatrix@_J@@6B@ 000000018001e9e8     mexOMPMask.obj
 0002:00001a38       ??_7?$AbstractMatrixB@_J@@6B@ 000000018001ea38     mexOMPMask.obj
 0002:00001ab8       ??_7?$Matrix@_J@@6B?$Data@_J@@@ 000000018001eab8     mexOMPMask.obj
 0002:00001b08       ??_7?$Matrix@_J@@6B?$AbstractMatrix@_J@@@ 000000018001eb08     mexOMPMask.obj
 0002:00001b58       ??_7?$Matrix@_J@@6B?$AbstractMatrixB@_J@@@ 000000018001eb58     mexOMPMask.obj
 0002:00001bd8       ??_7?$ProdMatrix@N@@6B@    000000018001ebd8     mexOMPMask.obj
 0002:00001c28       ??_7?$ProdMatrix@M@@6B@    000000018001ec28     mexOMPMask.obj
 0002:00001c68       __real@00000000            000000018001ec68     mexOMPMask.obj
 0002:00001c70       __real@0000000000000000    000000018001ec70     mexOMPMask.obj
 0002:00001c78       __real@2edbe6ff            000000018001ec78     mexOMPMask.obj
 0002:00001c80       __real@3ddb7cdfd9d7bdbb    000000018001ec80     mexOMPMask.obj
 0002:00001c88       __real@3e45798ee2308c3a    000000018001ec88     mexOMPMask.obj
 0002:00001c90       __real@3f800000            000000018001ec90     mexOMPMask.obj
 0002:00001c98       __real@3ff0000000000000    000000018001ec98     mexOMPMask.obj
 0002:00001ca0       __real@40000000            000000018001eca0     mexOMPMask.obj
 0002:00001ca8       __real@4000000000000000    000000018001eca8     mexOMPMask.obj
 0002:00001cb0       __real@bf800000            000000018001ecb0     mexOMPMask.obj
 0002:00001cb8       __real@bff0000000000000    000000018001ecb8     mexOMPMask.obj
 0002:00001cc0       __xmm@80000000000000008000000000000000 000000018001ecc0     mexOMPMask.obj
 0002:00001cd0       __xmm@80000000800000008000000080000000 000000018001ecd0     mexOMPMask.obj
 0002:00001ce8       ??_7type_info@@6B@         000000018001ece8     MSVCRT:ti_inst.obj
 0002:00001cf0       _pDefaultRawDllMain        000000018001ecf0     MSVCRT:crtdll.obj
 0002:00001cf0       _pRawDllMain               000000018001ecf0     MSVCRT:crtdll.obj
 0002:00001d00       _load_config_used          000000018001ed00     MSVCRT:loadcfg.obj
 0002:00001d70       ??_R4error_category@std@@6B@ 000000018001ed70     mexOMPMask.obj
 0002:00001d98       ??_R3error_category@std@@8 000000018001ed98     mexOMPMask.obj
 0002:00001db0       ??_R2error_category@std@@8 000000018001edb0     mexOMPMask.obj
 0002:00001dc0       ??_R1A@?0A@EA@error_category@std@@8 000000018001edc0     mexOMPMask.obj
 0002:00001de8       ??_R4_Generic_error_category@std@@6B@ 000000018001ede8     mexOMPMask.obj
 0002:00001e10       ??_R3_Generic_error_category@std@@8 000000018001ee10     mexOMPMask.obj
 0002:00001e28       ??_R2_Generic_error_category@std@@8 000000018001ee28     mexOMPMask.obj
 0002:00001e40       ??_R1A@?0A@EA@_Generic_error_category@std@@8 000000018001ee40     mexOMPMask.obj
 0002:00001e68       ??_R4_Iostream_error_category@std@@6B@ 000000018001ee68     mexOMPMask.obj
 0002:00001e90       ??_R3_Iostream_error_category@std@@8 000000018001ee90     mexOMPMask.obj
 0002:00001ea8       ??_R2_Iostream_error_category@std@@8 000000018001eea8     mexOMPMask.obj
 0002:00001ec8       ??_R1A@?0A@EA@_Iostream_error_category@std@@8 000000018001eec8     mexOMPMask.obj
 0002:00001ef0       ??_R4_System_error_category@std@@6B@ 000000018001eef0     mexOMPMask.obj
 0002:00001f18       ??_R3_System_error_category@std@@8 000000018001ef18     mexOMPMask.obj
 0002:00001f30       ??_R2_System_error_category@std@@8 000000018001ef30     mexOMPMask.obj
 0002:00001f50       ??_R1A@?0A@EA@_System_error_category@std@@8 000000018001ef50     mexOMPMask.obj
 0002:00001f78       ??_R4?$Vector@_J@@6B@      000000018001ef78     mexOMPMask.obj
 0002:00001fa0       ??_R3?$Vector@_J@@8        000000018001efa0     mexOMPMask.obj
 0002:00001fb8       ??_R2?$Vector@_J@@8        000000018001efb8     mexOMPMask.obj
 0002:00001fc8       ??_R1A@?0A@EA@?$Vector@_J@@8 000000018001efc8     mexOMPMask.obj
 0002:00001ff0       ??_R4?$Vector@_N@@6B@      000000018001eff0     mexOMPMask.obj
 0002:00002018       ??_R3?$Vector@_N@@8        000000018001f018     mexOMPMask.obj
 0002:00002030       ??_R2?$Vector@_N@@8        000000018001f030     mexOMPMask.obj
 0002:00002040       ??_R1A@?0A@EA@?$Vector@_N@@8 000000018001f040     mexOMPMask.obj
 0002:00002068       ??_R4?$Vector@H@@6B@       000000018001f068     mexOMPMask.obj
 0002:00002090       ??_R3?$Vector@H@@8         000000018001f090     mexOMPMask.obj
 0002:000020a8       ??_R2?$Vector@H@@8         000000018001f0a8     mexOMPMask.obj
 0002:000020b8       ??_R1A@?0A@EA@?$Vector@H@@8 000000018001f0b8     mexOMPMask.obj
 0002:000020e0       ??_R4?$Matrix@_J@@6B?$Data@_J@@@ 000000018001f0e0     mexOMPMask.obj
 0002:00002108       ??_R3?$Matrix@_J@@8        000000018001f108     mexOMPMask.obj
 0002:00002120       ??_R2?$Matrix@_J@@8        000000018001f120     mexOMPMask.obj
 0002:00002148       ??_R1A@?0A@EA@?$Matrix@_J@@8 000000018001f148     mexOMPMask.obj
 0002:00002170       ??_R1A@?0A@EA@?$Data@_J@@8 000000018001f170     mexOMPMask.obj
 0002:00002198       ??_R3?$Data@_J@@8          000000018001f198     mexOMPMask.obj
 0002:000021b0       ??_R2?$Data@_J@@8          000000018001f1b0     mexOMPMask.obj
 0002:000021c0       ??_R17?0A@EA@?$AbstractMatrix@_J@@8 000000018001f1c0     mexOMPMask.obj
 0002:000021e8       ??_R3?$AbstractMatrix@_J@@8 000000018001f1e8     mexOMPMask.obj
 0002:00002200       ??_R2?$AbstractMatrix@_J@@8 000000018001f200     mexOMPMask.obj
 0002:00002210       ??_R1A@?0A@EA@?$AbstractMatrix@_J@@8 000000018001f210     mexOMPMask.obj
 0002:00002238       ??_R1BA@?0A@EA@?$AbstractMatrixB@_J@@8 000000018001f238     mexOMPMask.obj
 0002:00002260       ??_R3?$AbstractMatrixB@_J@@8 000000018001f260     mexOMPMask.obj
 0002:00002278       ??_R2?$AbstractMatrixB@_J@@8 000000018001f278     mexOMPMask.obj
 0002:00002288       ??_R1A@?0A@EA@?$AbstractMatrixB@_J@@8 000000018001f288     mexOMPMask.obj
 0002:000022b0       ??_R4?$Matrix@_J@@6B?$AbstractMatrix@_J@@@ 000000018001f2b0     mexOMPMask.obj
 0002:000022d8       ??_R4?$Matrix@_J@@6B?$AbstractMatrixB@_J@@@ 000000018001f2d8     mexOMPMask.obj
 0002:00002300       ??_R4?$Vector@N@@6B@       000000018001f300     mexOMPMask.obj
 0002:00002328       ??_R3?$Vector@N@@8         000000018001f328     mexOMPMask.obj
 0002:00002340       ??_R2?$Vector@N@@8         000000018001f340     mexOMPMask.obj
 0002:00002350       ??_R1A@?0A@EA@?$Vector@N@@8 000000018001f350     mexOMPMask.obj
 0002:00002378       ??_R4?$SpMatrix@N@@6B?$Data@N@@@ 000000018001f378     mexOMPMask.obj
 0002:000023a0       ??_R3?$SpMatrix@N@@8       000000018001f3a0     mexOMPMask.obj
 0002:000023b8       ??_R2?$SpMatrix@N@@8       000000018001f3b8     mexOMPMask.obj
 0002:000023d8       ??_R1A@?0A@EA@?$SpMatrix@N@@8 000000018001f3d8     mexOMPMask.obj
 0002:00002400       ??_R1A@?0A@EA@?$Data@N@@8  000000018001f400     mexOMPMask.obj
 0002:00002428       ??_R3?$Data@N@@8           000000018001f428     mexOMPMask.obj
 0002:00002440       ??_R2?$Data@N@@8           000000018001f440     mexOMPMask.obj
 0002:00002450       ??_R17?0A@EA@?$AbstractMatrixB@N@@8 000000018001f450     mexOMPMask.obj
 0002:00002478       ??_R3?$AbstractMatrixB@N@@8 000000018001f478     mexOMPMask.obj
 0002:00002490       ??_R2?$AbstractMatrixB@N@@8 000000018001f490     mexOMPMask.obj
 0002:000024a0       ??_R1A@?0A@EA@?$AbstractMatrixB@N@@8 000000018001f4a0     mexOMPMask.obj
 0002:000024c8       ??_R4?$SpMatrix@N@@6B?$AbstractMatrixB@N@@@ 000000018001f4c8     mexOMPMask.obj
 0002:000024f0       ??_R4?$Matrix@N@@6B?$Data@N@@@ 000000018001f4f0     mexOMPMask.obj
 0002:00002518       ??_R3?$Matrix@N@@8         000000018001f518     mexOMPMask.obj
 0002:00002530       ??_R2?$Matrix@N@@8         000000018001f530     mexOMPMask.obj
 0002:00002558       ??_R1A@?0A@EA@?$Matrix@N@@8 000000018001f558     mexOMPMask.obj
 0002:00002580       ??_R17?0A@EA@?$AbstractMatrix@N@@8 000000018001f580     mexOMPMask.obj
 0002:000025a8       ??_R3?$AbstractMatrix@N@@8 000000018001f5a8     mexOMPMask.obj
 0002:000025c0       ??_R2?$AbstractMatrix@N@@8 000000018001f5c0     mexOMPMask.obj
 0002:000025d0       ??_R1A@?0A@EA@?$AbstractMatrix@N@@8 000000018001f5d0     mexOMPMask.obj
 0002:000025f8       ??_R1BA@?0A@EA@?$AbstractMatrixB@N@@8 000000018001f5f8     mexOMPMask.obj
 0002:00002620       ??_R4?$Matrix@N@@6B?$AbstractMatrix@N@@@ 000000018001f620     mexOMPMask.obj
 0002:00002648       ??_R4?$Matrix@N@@6B?$AbstractMatrixB@N@@@ 000000018001f648     mexOMPMask.obj
 0002:00002670       ??_R4?$Vector@M@@6B@       000000018001f670     mexOMPMask.obj
 0002:00002698       ??_R3?$Vector@M@@8         000000018001f698     mexOMPMask.obj
 0002:000026b0       ??_R2?$Vector@M@@8         000000018001f6b0     mexOMPMask.obj
 0002:000026c0       ??_R1A@?0A@EA@?$Vector@M@@8 000000018001f6c0     mexOMPMask.obj
 0002:000026e8       ??_R4?$SpMatrix@M@@6B?$Data@M@@@ 000000018001f6e8     mexOMPMask.obj
 0002:00002710       ??_R3?$SpMatrix@M@@8       000000018001f710     mexOMPMask.obj
 0002:00002728       ??_R2?$SpMatrix@M@@8       000000018001f728     mexOMPMask.obj
 0002:00002748       ??_R1A@?0A@EA@?$SpMatrix@M@@8 000000018001f748     mexOMPMask.obj
 0002:00002770       ??_R1A@?0A@EA@?$Data@M@@8  000000018001f770     mexOMPMask.obj
 0002:00002798       ??_R3?$Data@M@@8           000000018001f798     mexOMPMask.obj
 0002:000027b0       ??_R2?$Data@M@@8           000000018001f7b0     mexOMPMask.obj
 0002:000027c0       ??_R17?0A@EA@?$AbstractMatrixB@M@@8 000000018001f7c0     mexOMPMask.obj
 0002:000027e8       ??_R3?$AbstractMatrixB@M@@8 000000018001f7e8     mexOMPMask.obj
 0002:00002800       ??_R2?$AbstractMatrixB@M@@8 000000018001f800     mexOMPMask.obj
 0002:00002810       ??_R1A@?0A@EA@?$AbstractMatrixB@M@@8 000000018001f810     mexOMPMask.obj
 0002:00002838       ??_R4?$SpMatrix@M@@6B?$AbstractMatrixB@M@@@ 000000018001f838     mexOMPMask.obj
 0002:00002860       ??_R4?$Matrix@M@@6B?$Data@M@@@ 000000018001f860     mexOMPMask.obj
 0002:00002888       ??_R3?$Matrix@M@@8         000000018001f888     mexOMPMask.obj
 0002:000028a0       ??_R2?$Matrix@M@@8         000000018001f8a0     mexOMPMask.obj
 0002:000028c8       ??_R1A@?0A@EA@?$Matrix@M@@8 000000018001f8c8     mexOMPMask.obj
 0002:000028f0       ??_R17?0A@EA@?$AbstractMatrix@M@@8 000000018001f8f0     mexOMPMask.obj
 0002:00002918       ??_R3?$AbstractMatrix@M@@8 000000018001f918     mexOMPMask.obj
 0002:00002930       ??_R2?$AbstractMatrix@M@@8 000000018001f930     mexOMPMask.obj
 0002:00002940       ??_R1A@?0A@EA@?$AbstractMatrix@M@@8 000000018001f940     mexOMPMask.obj
 0002:00002968       ??_R1BA@?0A@EA@?$AbstractMatrixB@M@@8 000000018001f968     mexOMPMask.obj
 0002:00002990       ??_R4?$Matrix@M@@6B?$AbstractMatrix@M@@@ 000000018001f990     mexOMPMask.obj
 0002:000029b8       ??_R4?$Matrix@M@@6B?$AbstractMatrixB@M@@@ 000000018001f9b8     mexOMPMask.obj
 0002:000029e0       ??_R1A@?0A@EA@?$Data@_N@@8 000000018001f9e0     mexOMPMask.obj
 0002:00002a08       ??_R3?$Data@_N@@8          000000018001fa08     mexOMPMask.obj
 0002:00002a20       ??_R2?$Data@_N@@8          000000018001fa20     mexOMPMask.obj
 0002:00002a30       ??_R3?$AbstractMatrixB@_N@@8 000000018001fa30     mexOMPMask.obj
 0002:00002a48       ??_R2?$AbstractMatrixB@_N@@8 000000018001fa48     mexOMPMask.obj
 0002:00002a58       ??_R1A@?0A@EA@?$AbstractMatrixB@_N@@8 000000018001fa58     mexOMPMask.obj
 0002:00002a80       ??_R4?$Matrix@_N@@6B?$Data@_N@@@ 000000018001fa80     mexOMPMask.obj
 0002:00002aa8       ??_R3?$Matrix@_N@@8        000000018001faa8     mexOMPMask.obj
 0002:00002ac0       ??_R2?$Matrix@_N@@8        000000018001fac0     mexOMPMask.obj
 0002:00002ae8       ??_R1A@?0A@EA@?$Matrix@_N@@8 000000018001fae8     mexOMPMask.obj
 0002:00002b10       ??_R17?0A@EA@?$AbstractMatrix@_N@@8 000000018001fb10     mexOMPMask.obj
 0002:00002b38       ??_R3?$AbstractMatrix@_N@@8 000000018001fb38     mexOMPMask.obj
 0002:00002b50       ??_R2?$AbstractMatrix@_N@@8 000000018001fb50     mexOMPMask.obj
 0002:00002b60       ??_R1A@?0A@EA@?$AbstractMatrix@_N@@8 000000018001fb60     mexOMPMask.obj
 0002:00002b88       ??_R1BA@?0A@EA@?$AbstractMatrixB@_N@@8 000000018001fb88     mexOMPMask.obj
 0002:00002bb0       ??_R4?$Matrix@_N@@6B?$AbstractMatrix@_N@@@ 000000018001fbb0     mexOMPMask.obj
 0002:00002bd8       ??_R4?$Matrix@_N@@6B?$AbstractMatrixB@_N@@@ 000000018001fbd8     mexOMPMask.obj
 0002:00002c00       ??_R4?$Data@N@@6B@         000000018001fc00     mexOMPMask.obj
 0002:00002c28       ??_R4?$AbstractMatrix@N@@6B@ 000000018001fc28     mexOMPMask.obj
 0002:00002c50       ??_R4?$AbstractMatrixB@N@@6B@ 000000018001fc50     mexOMPMask.obj
 0002:00002c78       ??_R4?$Data@_N@@6B@        000000018001fc78     mexOMPMask.obj
 0002:00002ca0       ??_R4?$AbstractMatrix@_N@@6B@ 000000018001fca0     mexOMPMask.obj
 0002:00002cc8       ??_R4?$AbstractMatrixB@_N@@6B@ 000000018001fcc8     mexOMPMask.obj
 0002:00002cf0       ??_R4?$Data@M@@6B@         000000018001fcf0     mexOMPMask.obj
 0002:00002d18       ??_R4?$AbstractMatrix@M@@6B@ 000000018001fd18     mexOMPMask.obj
 0002:00002d40       ??_R4?$AbstractMatrixB@M@@6B@ 000000018001fd40     mexOMPMask.obj
 0002:00002d68       ??_R4?$Data@_J@@6B@        000000018001fd68     mexOMPMask.obj
 0002:00002d90       ??_R4?$AbstractMatrix@_J@@6B@ 000000018001fd90     mexOMPMask.obj
 0002:00002db8       ??_R4?$AbstractMatrixB@_J@@6B@ 000000018001fdb8     mexOMPMask.obj
 0002:00002de0       ??_R4?$ProdMatrix@N@@6B@   000000018001fde0     mexOMPMask.obj
 0002:00002e08       ??_R3?$ProdMatrix@N@@8     000000018001fe08     mexOMPMask.obj
 0002:00002e20       ??_R2?$ProdMatrix@N@@8     000000018001fe20     mexOMPMask.obj
 0002:00002e38       ??_R1A@?0A@EA@?$ProdMatrix@N@@8 000000018001fe38     mexOMPMask.obj
 0002:00002e60       ??_R4?$ProdMatrix@M@@6B@   000000018001fe60     mexOMPMask.obj
 0002:00002e88       ??_R3?$ProdMatrix@M@@8     000000018001fe88     mexOMPMask.obj
 0002:00002ea0       ??_R2?$ProdMatrix@M@@8     000000018001fea0     mexOMPMask.obj
 0002:00002eb8       ??_R1A@?0A@EA@?$ProdMatrix@M@@8 000000018001feb8     mexOMPMask.obj
 0002:00002ee0       ??_R4type_info@@6B@        000000018001fee0     MSVCRT:ti_inst.obj
 0002:00002f08       ??_R3type_info@@8          000000018001ff08     MSVCRT:ti_inst.obj
 0002:00002f20       ??_R2type_info@@8          000000018001ff20     MSVCRT:ti_inst.obj
 0002:00002f30       ??_R1A@?0A@EA@type_info@@8 000000018001ff30     MSVCRT:ti_inst.obj
 0002:00002f58       __rtc_iaa                  000000018001ff58     MSVCRT:initsect.obj
 0002:00002f60       __rtc_izz                  000000018001ff60     MSVCRT:initsect.obj
 0002:00002f68       __rtc_taa                  000000018001ff68     MSVCRT:initsect.obj
 0002:00002f70       __rtc_tzz                  000000018001ff70     MSVCRT:initsect.obj
 0002:00004b50       __IMPORT_DESCRIPTOR_libmx  0000000180021b50     libmx:libmx.dll
 0002:00004b64       __IMPORT_DESCRIPTOR_libmex 0000000180021b64     libmex:libmex.dll
 0002:00004b78       __IMPORT_DESCRIPTOR_KERNEL32 0000000180021b78     kernel32:KERNEL32.dll
 0002:00004b8c       __IMPORT_DESCRIPTOR_libmwblas 0000000180021b8c     libmwblas:libmwblas.dll
 0002:00004ba0       __IMPORT_DESCRIPTOR_MSVCP110 0000000180021ba0     msvcprt:MSVCP110.dll
 0002:00004bb4       __IMPORT_DESCRIPTOR_MSVCR110 0000000180021bb4     MSVCRT:MSVCR110.dll
 0002:00004bc8       __NULL_IMPORT_DESCRIPTOR   0000000180021bc8     libmx:libmx.dll
 0003:00000000       ?CBLAS_TRANSPOSE_CHAR@@3PADA 0000000180023000     mexOMPMask.obj
 0003:00000004       ?CBLAS_UPLO_CHAR@@3PADA    0000000180023004     mexOMPMask.obj
 0003:00000008       ?CBLAS_DIAG_CHAR@@3PADA    0000000180023008     mexOMPMask.obj
 0003:0000000c       ?CBLAS_SIDE_CHAR@@3PADA    000000018002300c     mexOMPMask.obj
 0003:00000018       ??_R0?AVerror_category@std@@@8 0000000180023018     mexOMPMask.obj
 0003:00000048       ??_R0?AV_Generic_error_category@std@@@8 0000000180023048     mexOMPMask.obj
 0003:00000080       ??_R0?AV_Iostream_error_category@std@@@8 0000000180023080     mexOMPMask.obj
 0003:000000b8       ??_R0?AV_System_error_category@std@@@8 00000001800230b8     mexOMPMask.obj
 0003:000000f0       ??_R0?AV?$Vector@_J@@@8    00000001800230f0     mexOMPMask.obj
 0003:00000118       ??_R0?AV?$Vector@_N@@@8    0000000180023118     mexOMPMask.obj
 0003:00000140       ??_R0?AV?$Vector@H@@@8     0000000180023140     mexOMPMask.obj
 0003:00000168       ??_R0?AV?$Matrix@_J@@@8    0000000180023168     mexOMPMask.obj
 0003:00000190       ??_R0?AV?$Data@_J@@@8      0000000180023190     mexOMPMask.obj
 0003:000001b0       ??_R0?AV?$AbstractMatrix@_J@@@8 00000001800231b0     mexOMPMask.obj
 0003:000001e0       ??_R0?AV?$AbstractMatrixB@_J@@@8 00000001800231e0     mexOMPMask.obj
 0003:00000210       ??_R0?AV?$Vector@N@@@8     0000000180023210     mexOMPMask.obj
 0003:00000238       ??_R0?AV?$SpMatrix@N@@@8   0000000180023238     mexOMPMask.obj
 0003:00000260       ??_R0?AV?$Data@N@@@8       0000000180023260     mexOMPMask.obj
 0003:00000280       ??_R0?AV?$AbstractMatrixB@N@@@8 0000000180023280     mexOMPMask.obj
 0003:000002b0       ??_R0?AV?$Matrix@N@@@8     00000001800232b0     mexOMPMask.obj
 0003:000002d8       ??_R0?AV?$AbstractMatrix@N@@@8 00000001800232d8     mexOMPMask.obj
 0003:00000308       ??_R0?AV?$Vector@M@@@8     0000000180023308     mexOMPMask.obj
 0003:00000330       ??_R0?AV?$SpMatrix@M@@@8   0000000180023330     mexOMPMask.obj
 0003:00000358       ??_R0?AV?$Data@M@@@8       0000000180023358     mexOMPMask.obj
 0003:00000378       ??_R0?AV?$AbstractMatrixB@M@@@8 0000000180023378     mexOMPMask.obj
 0003:000003a8       ??_R0?AV?$Matrix@M@@@8     00000001800233a8     mexOMPMask.obj
 0003:000003d0       ??_R0?AV?$AbstractMatrix@M@@@8 00000001800233d0     mexOMPMask.obj
 0003:00000400       ??_R0?AV?$Data@_N@@@8      0000000180023400     mexOMPMask.obj
 0003:00000420       ??_R0?AV?$AbstractMatrixB@_N@@@8 0000000180023420     mexOMPMask.obj
 0003:00000450       ??_R0?AV?$Matrix@_N@@@8    0000000180023450     mexOMPMask.obj
 0003:00000478       ??_R0?AV?$AbstractMatrix@_N@@@8 0000000180023478     mexOMPMask.obj
 0003:000004a8       ??_R0?AV?$ProdMatrix@N@@@8 00000001800234a8     mexOMPMask.obj
 0003:000004d0       ??_R0?AV?$ProdMatrix@M@@@8 00000001800234d0     mexOMPMask.obj
 0003:000004f8       ??_R0?AVtype_info@@@8      00000001800234f8     MSVCRT:ti_inst.obj
 0003:00000518       _fltused                   0000000180023518     MSVCRT:dllsupp.obj
 0003:0000051c       __native_dllmain_reason    000000018002351c     MSVCRT:natstart.obj
 0003:00000520       __security_cookie          0000000180023520     MSVCRT:gs_cookie.obj
 0003:00000528       __security_cookie_complement 0000000180023528     MSVCRT:gs_cookie.obj
 0003:00000548       ?_Generic_object@?$_Error_objects@H@std@@2V_Generic_error_category@2@A 0000000180023548     mexOMPMask.obj
 0003:00000550       ?_Iostream_object@?$_Error_objects@H@std@@2V_Iostream_error_category@2@A 0000000180023550     mexOMPMask.obj
 0003:00000558       ?_System_object@?$_Error_objects@H@std@@2V_System_error_category@2@A 0000000180023558     mexOMPMask.obj
 0003:00000568       ?id@?$num_put@DV?$back_insert_iterator@V?$basic_string@DU?$char_traits@D@std@@V?$allocator@D@2@@std@@@std@@@std@@2V0locale@2@A 0000000180023568     mexOMPMask.obj
 0003:00000570       ?id@?$num_put@_WV?$back_insert_iterator@V?$basic_string@_WU?$char_traits@_W@std@@V?$allocator@_W@2@@std@@@std@@@std@@2V0locale@2@A 0000000180023570     mexOMPMask.obj
 0003:00000580       ?__type_info_root_node@@3U__type_info_node@@A 0000000180023580     MSVCRT:tncleanup.obj
 0003:00000590       __native_startup_lock      0000000180023590     <common>
 0003:00000598       __native_startup_state     0000000180023598     <common>
 0003:000005a0       __dyn_tls_init_callback    00000001800235a0     <common>
 0003:000005a8       __onexitend                00000001800235a8     <common>
 0003:000005b0       __onexitbegin              00000001800235b0     <common>

 entry point at        0001:00019acc

 Static symbols

 0001:000001c0       ?init_omp@@YAHH@Z          00000001800011c0 f   mexOMPMask.obj
 0001:000004e0       ??$sort@N_J@@YAXPEA_JPEAN_J2@Z 00000001800014e0 f   mexOMPMask.obj
 0001:00000730       ??$sort@M_J@@YAXPEA_JPEAM_J2@Z 0000000180001730 f   mexOMPMask.obj
 0001:00019820       pre_c_init                 000000018001a820 f   MSVCRT:crtdll.obj
 0001:00019b0c       __DllMainCRTStartup        000000018001ab0c f   MSVCRT:crtdll.obj
 0001:00019eb0       ?dtor$0@?0???$?6DU?$char_traits@D@std@@V?$allocator@D@1@@std@@YAAEAV?$basic_ostream@DU?$char_traits@D@std@@@0@AEAV10@AEBV?$basic_string@DU?$char_traits@D@std@@V?$allocator@D@2@@0@@Z@4HA 000000018001aeb0 f   mexOMPMask.obj
 0001:00019ecb       ?catch$0@?0???$?6DU?$char_traits@D@std@@V?$allocator@D@1@@std@@YAAEAV?$basic_ostream@DU?$char_traits@D@std@@@0@AEAV10@AEBV?$basic_string@DU?$char_traits@D@std@@V?$allocator@D@2@@0@@Z@4HA 000000018001aecb f   mexOMPMask.obj
 0001:00019ed8       __catch$??$?6DU?$char_traits@D@std@@V?$allocator@D@1@@std@@YAAEAV?$basic_ostream@DU?$char_traits@D@std@@@0@AEAV10@AEBV?$basic_string@DU?$char_traits@D@std@@V?$allocator@D@2@@0@@Z$0 000000018001aed8 f   mexOMPMask.obj
 0001:00019f20       ?dtor$0@?0???$?6U?$char_traits@D@std@@@std@@YAAEAV?$basic_ostream@DU?$char_traits@D@std@@@0@AEAV10@PEBD@Z@4HA 000000018001af20 f   mexOMPMask.obj
 0001:00019f3b       ?catch$0@?0???$?6U?$char_traits@D@std@@@std@@YAAEAV?$basic_ostream@DU?$char_traits@D@std@@@0@AEAV10@PEBD@Z@4HA 000000018001af3b f   mexOMPMask.obj
 0001:00019f48       __catch$??$?6U?$char_traits@D@std@@@std@@YAAEAV?$basic_ostream@DU?$char_traits@D@std@@@0@AEAV10@PEBD@Z$0 000000018001af48 f   mexOMPMask.obj
 0001:00019f90       ?dtor$0@?0???$callFunction@M@@YAXQEAPEAUmxArray_tag@@QEAPEBU0@H@Z@4HA 000000018001af90 f   mexOMPMask.obj
 0001:00019fab       ?dtor$1@?0???$callFunction@M@@YAXQEAPEAUmxArray_tag@@QEAPEBU0@H@Z@4HA 000000018001afab f   mexOMPMask.obj
 0001:00019fc6       ?dtor$2@?0???$callFunction@M@@YAXQEAPEAUmxArray_tag@@QEAPEBU0@H@Z@4HA 000000018001afc6 f   mexOMPMask.obj
 0001:00019fe1       ?dtor$3@?0???$callFunction@M@@YAXQEAPEAUmxArray_tag@@QEAPEBU0@H@Z@4HA 000000018001afe1 f   mexOMPMask.obj
 0001:00019ffc       ?dtor$4@?0???$callFunction@M@@YAXQEAPEAUmxArray_tag@@QEAPEBU0@H@Z@4HA 000000018001affc f   mexOMPMask.obj
 0001:0001a020       ?dtor$0@?0???$callFunction@N@@YAXQEAPEAUmxArray_tag@@QEAPEBU0@H@Z@4HA 000000018001b020 f   mexOMPMask.obj
 0001:0001a03b       ?dtor$1@?0???$callFunction@N@@YAXQEAPEAUmxArray_tag@@QEAPEBU0@H@Z@4HA 000000018001b03b f   mexOMPMask.obj
 0001:0001a056       ?dtor$2@?0???$callFunction@N@@YAXQEAPEAUmxArray_tag@@QEAPEBU0@H@Z@4HA 000000018001b056 f   mexOMPMask.obj
 0001:0001a071       ?dtor$3@?0???$callFunction@N@@YAXQEAPEAUmxArray_tag@@QEAPEBU0@H@Z@4HA 000000018001b071 f   mexOMPMask.obj
 0001:0001a08c       ?dtor$4@?0???$callFunction@N@@YAXQEAPEAUmxArray_tag@@QEAPEBU0@H@Z@4HA 000000018001b08c f   mexOMPMask.obj
 0001:0001a0b0       ?dtor$0@?0???$construct@PEADAEAPEAD@?$allocator@D@std@@QEAAXPEAPEADAEAPEAD@Z@4HA 000000018001b0b0 f   mexOMPMask.obj
 0001:0001a0d0       ?dtor$0@?0???$coreORMP@M@@YAXAEAV?$Vector@M@@00AEAV?$Matrix@M@@1110AEBV?$AbstractMatrix@M@@AEAV?$Vector@_J@@0AEAMPEBMPEBH5PEAM@Z@4HA 000000018001b0d0 f   mexOMPMask.obj
 0001:0001a0eb       ?dtor$1@?0???$coreORMP@M@@YAXAEAV?$Vector@M@@00AEAV?$Matrix@M@@1110AEBV?$AbstractMatrix@M@@AEAV?$Vector@_J@@0AEAMPEBMPEBH5PEAM@Z@4HA 000000018001b0eb f   mexOMPMask.obj
 0001:0001a110       ?dtor$0@?0???$coreORMP@N@@YAXAEAV?$Vector@N@@00AEAV?$Matrix@N@@1110AEBV?$AbstractMatrix@N@@AEAV?$Vector@_J@@0AEANPEBNPEBH5PEAN@Z@4HA 000000018001b110 f   mexOMPMask.obj
 0001:0001a12b       ?dtor$1@?0???$coreORMP@N@@YAXAEAV?$Vector@N@@00AEAV?$Matrix@N@@1110AEBV?$AbstractMatrix@N@@AEAV?$Vector@_J@@0AEANPEBNPEBH5PEAN@Z@4HA 000000018001b12b f   mexOMPMask.obj
 0001:0001a150       ?dtor$0@?0???$omp_mask@M@@YAXAEBV?$Matrix@M@@0AEAV?$SpMatrix@M@@AEBV?$Matrix@_N@@PEBHPEBM4_N55HPEAV0@@Z@4HA 000000018001b150 f   mexOMPMask.obj
 0001:0001a16b       ?dtor$1@?0???$omp_mask@M@@YAXAEBV?$Matrix@M@@0AEAV?$SpMatrix@M@@AEBV?$Matrix@_N@@PEBHPEBM4_N55HPEAV0@@Z@4HA 000000018001b16b f   mexOMPMask.obj
 0001:0001a186       ?dtor$2@?0???$omp_mask@M@@YAXAEBV?$Matrix@M@@0AEAV?$SpMatrix@M@@AEBV?$Matrix@_N@@PEBHPEBM4_N55HPEAV0@@Z@4HA 000000018001b186 f   mexOMPMask.obj
 0001:0001a1a1       ?dtor$3@?0???$omp_mask@M@@YAXAEBV?$Matrix@M@@0AEAV?$SpMatrix@M@@AEBV?$Matrix@_N@@PEBHPEBM4_N55HPEAV0@@Z@4HA 000000018001b1a1 f   mexOMPMask.obj
 0001:0001a1bc       ?dtor$4@?0???$omp_mask@M@@YAXAEBV?$Matrix@M@@0AEAV?$SpMatrix@M@@AEBV?$Matrix@_N@@PEBHPEBM4_N55HPEAV0@@Z@4HA 000000018001b1bc f   mexOMPMask.obj
 0001:0001a1d7       ?dtor$5@?0???$omp_mask@M@@YAXAEBV?$Matrix@M@@0AEAV?$SpMatrix@M@@AEBV?$Matrix@_N@@PEBHPEBM4_N55HPEAV0@@Z@4HA 000000018001b1d7 f   mexOMPMask.obj
 0001:0001a1f2       ?dtor$6@?0???$omp_mask@M@@YAXAEBV?$Matrix@M@@0AEAV?$SpMatrix@M@@AEBV?$Matrix@_N@@PEBHPEBM4_N55HPEAV0@@Z@4HA 000000018001b1f2 f   mexOMPMask.obj
 0001:0001a20d       ?dtor$7@?0???$omp_mask@M@@YAXAEBV?$Matrix@M@@0AEAV?$SpMatrix@M@@AEBV?$Matrix@_N@@PEBHPEBM4_N55HPEAV0@@Z@4HA 000000018001b20d f   mexOMPMask.obj
 0001:0001a228       ?dtor$8@?0???$omp_mask@M@@YAXAEBV?$Matrix@M@@0AEAV?$SpMatrix@M@@AEBV?$Matrix@_N@@PEBHPEBM4_N55HPEAV0@@Z@4HA 000000018001b228 f   mexOMPMask.obj
 0001:0001a243       ?dtor$9@?0???$omp_mask@M@@YAXAEBV?$Matrix@M@@0AEAV?$SpMatrix@M@@AEBV?$Matrix@_N@@PEBHPEBM4_N55HPEAV0@@Z@4HA 000000018001b243 f   mexOMPMask.obj
 0001:0001a25e       ?dtor$10@?0???$omp_mask@M@@YAXAEBV?$Matrix@M@@0AEAV?$SpMatrix@M@@AEBV?$Matrix@_N@@PEBHPEBM4_N55HPEAV0@@Z@4HA 000000018001b25e f   mexOMPMask.obj
 0001:0001a279       ?dtor$11@?0???$omp_mask@M@@YAXAEBV?$Matrix@M@@0AEAV?$SpMatrix@M@@AEBV?$Matrix@_N@@PEBHPEBM4_N55HPEAV0@@Z@4HA 000000018001b279 f   mexOMPMask.obj
 0001:0001a294       ?dtor$12@?0???$omp_mask@M@@YAXAEBV?$Matrix@M@@0AEAV?$SpMatrix@M@@AEBV?$Matrix@_N@@PEBHPEBM4_N55HPEAV0@@Z@4HA 000000018001b294 f   mexOMPMask.obj
 0001:0001a2af       ?dtor$13@?0???$omp_mask@M@@YAXAEBV?$Matrix@M@@0AEAV?$SpMatrix@M@@AEBV?$Matrix@_N@@PEBHPEBM4_N55HPEAV0@@Z@4HA 000000018001b2af f   mexOMPMask.obj
 0001:0001a2ca       ?dtor$14@?0???$omp_mask@M@@YAXAEBV?$Matrix@M@@0AEAV?$SpMatrix@M@@AEBV?$Matrix@_N@@PEBHPEBM4_N55HPEAV0@@Z@4HA 000000018001b2ca f   mexOMPMask.obj
 0001:0001a2e5       ?dtor$15@?0???$omp_mask@M@@YAXAEBV?$Matrix@M@@0AEAV?$SpMatrix@M@@AEBV?$Matrix@_N@@PEBHPEBM4_N55HPEAV0@@Z@4HA 000000018001b2e5 f   mexOMPMask.obj
 0001:0001a300       ?dtor$16@?0???$omp_mask@M@@YAXAEBV?$Matrix@M@@0AEAV?$SpMatrix@M@@AEBV?$Matrix@_N@@PEBHPEBM4_N55HPEAV0@@Z@4HA 000000018001b300 f   mexOMPMask.obj
 0001:0001a31b       ?dtor$17@?0???$omp_mask@M@@YAXAEBV?$Matrix@M@@0AEAV?$SpMatrix@M@@AEBV?$Matrix@_N@@PEBHPEBM4_N55HPEAV0@@Z@4HA 000000018001b31b f   mexOMPMask.obj
 0001:0001a336       ?dtor$18@?0???$omp_mask@M@@YAXAEBV?$Matrix@M@@0AEAV?$SpMatrix@M@@AEBV?$Matrix@_N@@PEBHPEBM4_N55HPEAV0@@Z@4HA 000000018001b336 f   mexOMPMask.obj
 0001:0001a360       ?dtor$0@?0???$omp_mask@N@@YAXAEBV?$Matrix@N@@0AEAV?$SpMatrix@N@@AEBV?$Matrix@_N@@PEBHPEBN4_N55HPEAV0@@Z@4HA 000000018001b360 f   mexOMPMask.obj
 0001:0001a37b       ?dtor$1@?0???$omp_mask@N@@YAXAEBV?$Matrix@N@@0AEAV?$SpMatrix@N@@AEBV?$Matrix@_N@@PEBHPEBN4_N55HPEAV0@@Z@4HA 000000018001b37b f   mexOMPMask.obj
 0001:0001a396       ?dtor$2@?0???$omp_mask@N@@YAXAEBV?$Matrix@N@@0AEAV?$SpMatrix@N@@AEBV?$Matrix@_N@@PEBHPEBN4_N55HPEAV0@@Z@4HA 000000018001b396 f   mexOMPMask.obj
 0001:0001a3b1       ?dtor$3@?0???$omp_mask@N@@YAXAEBV?$Matrix@N@@0AEAV?$SpMatrix@N@@AEBV?$Matrix@_N@@PEBHPEBN4_N55HPEAV0@@Z@4HA 000000018001b3b1 f   mexOMPMask.obj
 0001:0001a3cc       ?dtor$4@?0???$omp_mask@N@@YAXAEBV?$Matrix@N@@0AEAV?$SpMatrix@N@@AEBV?$Matrix@_N@@PEBHPEBN4_N55HPEAV0@@Z@4HA 000000018001b3cc f   mexOMPMask.obj
 0001:0001a3e7       ?dtor$5@?0???$omp_mask@N@@YAXAEBV?$Matrix@N@@0AEAV?$SpMatrix@N@@AEBV?$Matrix@_N@@PEBHPEBN4_N55HPEAV0@@Z@4HA 000000018001b3e7 f   mexOMPMask.obj
 0001:0001a402       ?dtor$6@?0???$omp_mask@N@@YAXAEBV?$Matrix@N@@0AEAV?$SpMatrix@N@@AEBV?$Matrix@_N@@PEBHPEBN4_N55HPEAV0@@Z@4HA 000000018001b402 f   mexOMPMask.obj
 0001:0001a41d       ?dtor$7@?0???$omp_mask@N@@YAXAEBV?$Matrix@N@@0AEAV?$SpMatrix@N@@AEBV?$Matrix@_N@@PEBHPEBN4_N55HPEAV0@@Z@4HA 000000018001b41d f   mexOMPMask.obj
 0001:0001a438       ?dtor$8@?0???$omp_mask@N@@YAXAEBV?$Matrix@N@@0AEAV?$SpMatrix@N@@AEBV?$Matrix@_N@@PEBHPEBN4_N55HPEAV0@@Z@4HA 000000018001b438 f   mexOMPMask.obj
 0001:0001a453       ?dtor$9@?0???$omp_mask@N@@YAXAEBV?$Matrix@N@@0AEAV?$SpMatrix@N@@AEBV?$Matrix@_N@@PEBHPEBN4_N55HPEAV0@@Z@4HA 000000018001b453 f   mexOMPMask.obj
 0001:0001a46e       ?dtor$10@?0???$omp_mask@N@@YAXAEBV?$Matrix@N@@0AEAV?$SpMatrix@N@@AEBV?$Matrix@_N@@PEBHPEBN4_N55HPEAV0@@Z@4HA 000000018001b46e f   mexOMPMask.obj
 0001:0001a489       ?dtor$11@?0???$omp_mask@N@@YAXAEBV?$Matrix@N@@0AEAV?$SpMatrix@N@@AEBV?$Matrix@_N@@PEBHPEBN4_N55HPEAV0@@Z@4HA 000000018001b489 f   mexOMPMask.obj
 0001:0001a4a4       ?dtor$12@?0???$omp_mask@N@@YAXAEBV?$Matrix@N@@0AEAV?$SpMatrix@N@@AEBV?$Matrix@_N@@PEBHPEBN4_N55HPEAV0@@Z@4HA 000000018001b4a4 f   mexOMPMask.obj
 0001:0001a4bf       ?dtor$13@?0???$omp_mask@N@@YAXAEBV?$Matrix@N@@0AEAV?$SpMatrix@N@@AEBV?$Matrix@_N@@PEBHPEBN4_N55HPEAV0@@Z@4HA 000000018001b4bf f   mexOMPMask.obj
 0001:0001a4da       ?dtor$14@?0???$omp_mask@N@@YAXAEBV?$Matrix@N@@0AEAV?$SpMatrix@N@@AEBV?$Matrix@_N@@PEBHPEBN4_N55HPEAV0@@Z@4HA 000000018001b4da f   mexOMPMask.obj
 0001:0001a4f5       ?dtor$15@?0???$omp_mask@N@@YAXAEBV?$Matrix@N@@0AEAV?$SpMatrix@N@@AEBV?$Matrix@_N@@PEBHPEBN4_N55HPEAV0@@Z@4HA 000000018001b4f5 f   mexOMPMask.obj
 0001:0001a510       ?dtor$16@?0???$omp_mask@N@@YAXAEBV?$Matrix@N@@0AEAV?$SpMatrix@N@@AEBV?$Matrix@_N@@PEBHPEBN4_N55HPEAV0@@Z@4HA 000000018001b510 f   mexOMPMask.obj
 0001:0001a52b       ?dtor$17@?0???$omp_mask@N@@YAXAEBV?$Matrix@N@@0AEAV?$SpMatrix@N@@AEBV?$Matrix@_N@@PEBHPEBN4_N55HPEAV0@@Z@4HA 000000018001b52b f   mexOMPMask.obj
 0001:0001a546       ?dtor$18@?0???$omp_mask@N@@YAXAEBV?$Matrix@N@@0AEAV?$SpMatrix@N@@AEBV?$Matrix@_N@@PEBHPEBN4_N55HPEAV0@@Z@4HA 000000018001b546 f   mexOMPMask.obj
 0001:0001a570       ?dtor$0@?0???0?$Matrix@M@@QEAA@_J0@Z@4HA 000000018001b570 f   mexOMPMask.obj
 0001:0001a588       ?dtor$1@?0???0?$Matrix@M@@QEAA@_J0@Z@4HA 000000018001b588 f   mexOMPMask.obj
 0001:0001a5a4       ?dtor$2@?0???0?$Matrix@M@@QEAA@_J0@Z@4HA 000000018001b5a4 f   mexOMPMask.obj
 0001:0001a5c0       ?dtor$0@?0???0?$Matrix@N@@QEAA@_J0@Z@4HA 000000018001b5c0 f   mexOMPMask.obj
 0001:0001a5d8       ?dtor$1@?0???0?$Matrix@N@@QEAA@_J0@Z@4HA 000000018001b5d8 f   mexOMPMask.obj
 0001:0001a5f4       ?dtor$2@?0???0?$Matrix@N@@QEAA@_J0@Z@4HA 000000018001b5f4 f   mexOMPMask.obj
 0001:0001a610       ?dtor$0@?0???0?$Matrix@_J@@QEAA@_J0@Z@4HA 000000018001b610 f   mexOMPMask.obj
 0001:0001a628       ?dtor$1@?0???0?$Matrix@_J@@QEAA@_J0@Z@4HA 000000018001b628 f   mexOMPMask.obj
 0001:0001a644       ?dtor$2@?0???0?$Matrix@_J@@QEAA@_J0@Z@4HA 000000018001b644 f   mexOMPMask.obj
 0001:0001a660       ?dtor$0@?0???0?$ProdMatrix@M@@QEAA@AEBV?$Matrix@M@@_N@Z@4HA 000000018001b660 f   mexOMPMask.obj
 0001:0001a678       ?dtor$1@?0???0?$ProdMatrix@M@@QEAA@AEBV?$Matrix@M@@_N@Z@4HA 000000018001b678 f   mexOMPMask.obj
 0001:0001a690       ?dtor$0@?0???0?$ProdMatrix@N@@QEAA@AEBV?$Matrix@N@@_N@Z@4HA 000000018001b690 f   mexOMPMask.obj
 0001:0001a6a8       ?dtor$1@?0???0?$ProdMatrix@N@@QEAA@AEBV?$Matrix@N@@_N@Z@4HA 000000018001b6a8 f   mexOMPMask.obj
 0001:0001a6c0       ?dtor$0@?0???0sentry@?$basic_ostream@DU?$char_traits@D@std@@@std@@QEAA@AEAV12@@Z@4HA 000000018001b6c0 f   mexOMPMask.obj
 0001:0001a6e0       ?dtor$0@?0???1?$Matrix@M@@UEAA@XZ@4HA 000000018001b6e0 f   mexOMPMask.obj
 0001:0001a6f8       ?dtor$1@?0???1?$Matrix@M@@UEAA@XZ@4HA 000000018001b6f8 f   mexOMPMask.obj
 0001:0001a714       ?dtor$2@?0???1?$Matrix@M@@UEAA@XZ@4HA 000000018001b714 f   mexOMPMask.obj
 0001:0001a730       ?dtor$0@?0???1?$Matrix@N@@UEAA@XZ@4HA 000000018001b730 f   mexOMPMask.obj
 0001:0001a748       ?dtor$1@?0???1?$Matrix@N@@UEAA@XZ@4HA 000000018001b748 f   mexOMPMask.obj
 0001:0001a764       ?dtor$2@?0???1?$Matrix@N@@UEAA@XZ@4HA 000000018001b764 f   mexOMPMask.obj
 0001:0001a780       ?dtor$0@?0???1?$Matrix@_J@@UEAA@XZ@4HA 000000018001b780 f   mexOMPMask.obj
 0001:0001a798       ?dtor$1@?0???1?$Matrix@_J@@UEAA@XZ@4HA 000000018001b798 f   mexOMPMask.obj
 0001:0001a7b4       ?dtor$2@?0???1?$Matrix@_J@@UEAA@XZ@4HA 000000018001b7b4 f   mexOMPMask.obj
 0001:0001a7d0       ?dtor$0@?0???1?$Matrix@_N@@UEAA@XZ@4HA 000000018001b7d0 f   mexOMPMask.obj
 0001:0001a7e8       ?dtor$1@?0???1?$Matrix@_N@@UEAA@XZ@4HA 000000018001b7e8 f   mexOMPMask.obj
 0001:0001a804       ?dtor$2@?0???1?$Matrix@_N@@UEAA@XZ@4HA 000000018001b804 f   mexOMPMask.obj
 0001:0001a820       ?dtor$0@?0???1?$ProdMatrix@M@@UEAA@XZ@4HA 000000018001b820 f   mexOMPMask.obj
 0001:0001a840       ?dtor$0@?0???1?$ProdMatrix@N@@UEAA@XZ@4HA 000000018001b840 f   mexOMPMask.obj
 0001:0001a860       ?dtor$0@?0???1?$SpMatrix@M@@UEAA@XZ@4HA 000000018001b860 f   mexOMPMask.obj
 0001:0001a878       ?dtor$1@?0???1?$SpMatrix@M@@UEAA@XZ@4HA 000000018001b878 f   mexOMPMask.obj
 0001:0001a8a0       ?dtor$0@?0???1?$SpMatrix@N@@UEAA@XZ@4HA 000000018001b8a0 f   mexOMPMask.obj
 0001:0001a8b8       ?dtor$1@?0???1?$SpMatrix@N@@UEAA@XZ@4HA 000000018001b8b8 f   mexOMPMask.obj
 0001:0001a8e0       ?dtor$0@?0???R?$ProdMatrix@M@@UEBAM_J0@Z@4HA 000000018001b8e0 f   mexOMPMask.obj
 0001:0001a8f8       ?dtor$1@?0???R?$ProdMatrix@M@@UEBAM_J0@Z@4HA 000000018001b8f8 f   mexOMPMask.obj
 0001:0001a910       ?dtor$0@?0???R?$ProdMatrix@N@@UEBAN_J0@Z@4HA 000000018001b910 f   mexOMPMask.obj
 0001:0001a928       ?dtor$1@?0???R?$ProdMatrix@N@@UEBAN_J0@Z@4HA 000000018001b928 f   mexOMPMask.obj
 0001:0001a940       ?dtor$0@?0??XtX@?$SpMatrix@M@@UEBAXAEAV?$Matrix@M@@@Z@4HA 000000018001b940 f   mexOMPMask.obj
 0001:0001a958       ?dtor$1@?0??XtX@?$SpMatrix@M@@UEBAXAEAV?$Matrix@M@@@Z@4HA 000000018001b958 f   mexOMPMask.obj
 0001:0001a970       ?dtor$0@?0??XtX@?$SpMatrix@N@@UEBAXAEAV?$Matrix@N@@@Z@4HA 000000018001b970 f   mexOMPMask.obj
 0001:0001a988       ?dtor$1@?0??XtX@?$SpMatrix@N@@UEBAXAEAV?$Matrix@N@@@Z@4HA 000000018001b988 f   mexOMPMask.obj
 0001:0001a9a0       ?catch$1@?0??_Copy@?$basic_string@DU?$char_traits@D@std@@V?$allocator@D@2@@std@@QEAAX_K0@Z@4HA 000000018001b9a0 f   mexOMPMask.obj
 0001:0001a9ad       __catch$?_Copy@?$basic_string@DU?$char_traits@D@std@@V?$allocator@D@2@@std@@QEAAX_K0@Z$0 000000018001b9ad f   mexOMPMask.obj
 0001:0001a9fb       ?catch$0@?0??_Copy@?$basic_string@DU?$char_traits@D@std@@V?$allocator@D@2@@std@@QEAAX_K0@Z@4HA 000000018001b9fb f   mexOMPMask.obj
 0001:0001aa08       __catch$?_Copy@?$basic_string@DU?$char_traits@D@std@@V?$allocator@D@2@@std@@QEAAX_K0@Z$1 000000018001ba08 f   mexOMPMask.obj
 0001:0001aa40       ?dtor$0@?0??add_rawCol@?$ProdMatrix@M@@UEBAX_JPEAMM@Z@4HA 000000018001ba40 f   mexOMPMask.obj
 0001:0001aa40       ?dtor$0@?0??extract_rawCol@?$ProdMatrix@M@@UEBAX_JPEAM@Z@4HA 000000018001ba40 f   mexOMPMask.obj
 0001:0001aa58       ?dtor$1@?0??add_rawCol@?$ProdMatrix@M@@UEBAX_JPEAMM@Z@4HA 000000018001ba58 f   mexOMPMask.obj
 0001:0001aa58       ?dtor$1@?0??extract_rawCol@?$ProdMatrix@M@@UEBAX_JPEAM@Z@4HA 000000018001ba58 f   mexOMPMask.obj
 0001:0001aa70       ?dtor$0@?0??add_rawCol@?$ProdMatrix@N@@UEBAX_JPEANN@Z@4HA 000000018001ba70 f   mexOMPMask.obj
 0001:0001aa70       ?dtor$0@?0??extract_rawCol@?$ProdMatrix@N@@UEBAX_JPEAN@Z@4HA 000000018001ba70 f   mexOMPMask.obj
 0001:0001aa88       ?dtor$1@?0??add_rawCol@?$ProdMatrix@N@@UEBAX_JPEANN@Z@4HA 000000018001ba88 f   mexOMPMask.obj
 0001:0001aa88       ?dtor$1@?0??extract_rawCol@?$ProdMatrix@N@@UEBAX_JPEAN@Z@4HA 000000018001ba88 f   mexOMPMask.obj
 0001:0001aaa0       ?dtor$0@?0??rank1Update@?$Matrix@N@@QEAAXAEBV?$Vector@N@@AEBV?$SpVector@N@@N@Z@4HA 000000018001baa0 f   mexOMPMask.obj
 0001:0001aaa0       ?dtor$0@?0??multTrans@?$Matrix@N@@QEBAXAEBV?$SpVector@N@@AEAV?$Vector@N@@NN@Z@4HA 000000018001baa0 f   mexOMPMask.obj
 0001:0001aaa0       ?dtor$0@?0??copyCol@?$ProdMatrix@N@@UEBAX_JAEAV?$Vector@N@@@Z@4HA 000000018001baa0 f   mexOMPMask.obj
 0001:0001aac0       ?dtor$0@?0??diag@?$ProdMatrix@M@@UEBAXAEAV?$Vector@M@@@Z@4HA 000000018001bac0 f   mexOMPMask.obj
 0001:0001aad8       ?dtor$1@?0??diag@?$ProdMatrix@M@@UEBAXAEAV?$Vector@M@@@Z@4HA 000000018001bad8 f   mexOMPMask.obj
 0001:0001aaf0       ?dtor$0@?0??diag@?$ProdMatrix@N@@UEBAXAEAV?$Vector@N@@@Z@4HA 000000018001baf0 f   mexOMPMask.obj
 0001:0001ab08       ?dtor$1@?0??diag@?$ProdMatrix@N@@UEBAXAEAV?$Vector@N@@@Z@4HA 000000018001bb08 f   mexOMPMask.obj
 0001:0001ab20       ?dtor$0@?0??getGroup@?$SpMatrix@M@@UEBAXAEAV?$Matrix@M@@AEBV?$vector@V?$list@_JV?$allocator@_J@std@@@std@@V?$allocator@V?$list@_JV?$allocator@_J@std@@@std@@@2@@std@@_J@Z@4HA 000000018001bb20 f   mexOMPMask.obj
 0001:0001ab40       ?dtor$0@?0??getGroup@?$SpMatrix@N@@UEBAXAEAV?$Matrix@N@@AEBV?$vector@V?$list@_JV?$allocator@_J@std@@@std@@V?$allocator@V?$list@_JV?$allocator@_J@std@@@std@@@2@@std@@_J@Z@4HA 000000018001bb40 f   mexOMPMask.obj
 0001:0001ab60       ?dtor$0@?0??mult@?$Matrix@M@@UEBAXAEBV?$SpMatrix@M@@AEAV1@_N2MM@Z@4HA 000000018001bb60 f   mexOMPMask.obj
 0001:0001ab7b       ?dtor$1@?0??mult@?$Matrix@M@@UEBAXAEBV?$SpMatrix@M@@AEAV1@_N2MM@Z@4HA 000000018001bb7b f   mexOMPMask.obj
 0001:0001ab93       ?dtor$2@?0??mult@?$Matrix@M@@UEBAXAEBV?$SpMatrix@M@@AEAV1@_N2MM@Z@4HA 000000018001bb93 f   mexOMPMask.obj
 0001:0001abae       ?dtor$3@?0??mult@?$Matrix@M@@UEBAXAEBV?$SpMatrix@M@@AEAV1@_N2MM@Z@4HA 000000018001bbae f   mexOMPMask.obj
 0001:0001abc9       ?dtor$4@?0??mult@?$Matrix@M@@UEBAXAEBV?$SpMatrix@M@@AEAV1@_N2MM@Z@4HA 000000018001bbc9 f   mexOMPMask.obj
 0001:0001abe4       ?dtor$5@?0??mult@?$Matrix@M@@UEBAXAEBV?$SpMatrix@M@@AEAV1@_N2MM@Z@4HA 000000018001bbe4 f   mexOMPMask.obj
 0001:0001abff       ?dtor$6@?0??mult@?$Matrix@M@@UEBAXAEBV?$SpMatrix@M@@AEAV1@_N2MM@Z@4HA 000000018001bbff f   mexOMPMask.obj
 0001:0001ac1a       ?dtor$7@?0??mult@?$Matrix@M@@UEBAXAEBV?$SpMatrix@M@@AEAV1@_N2MM@Z@4HA 000000018001bc1a f   mexOMPMask.obj
 0001:0001ac40       ?dtor$0@?0??mult@?$Matrix@N@@UEBAXAEBV?$SpMatrix@N@@AEAV1@_N2NN@Z@4HA 000000018001bc40 f   mexOMPMask.obj
 0001:0001ac5b       ?dtor$1@?0??mult@?$Matrix@N@@UEBAXAEBV?$SpMatrix@N@@AEAV1@_N2NN@Z@4HA 000000018001bc5b f   mexOMPMask.obj
 0001:0001ac73       ?dtor$2@?0??mult@?$Matrix@N@@UEBAXAEBV?$SpMatrix@N@@AEAV1@_N2NN@Z@4HA 000000018001bc73 f   mexOMPMask.obj
 0001:0001ac8e       ?dtor$3@?0??mult@?$Matrix@N@@UEBAXAEBV?$SpMatrix@N@@AEAV1@_N2NN@Z@4HA 000000018001bc8e f   mexOMPMask.obj
 0001:0001aca9       ?dtor$4@?0??mult@?$Matrix@N@@UEBAXAEBV?$SpMatrix@N@@AEAV1@_N2NN@Z@4HA 000000018001bca9 f   mexOMPMask.obj
 0001:0001acc4       ?dtor$5@?0??mult@?$Matrix@N@@UEBAXAEBV?$SpMatrix@N@@AEAV1@_N2NN@Z@4HA 000000018001bcc4 f   mexOMPMask.obj
 0001:0001acdf       ?dtor$6@?0??mult@?$Matrix@N@@UEBAXAEBV?$SpMatrix@N@@AEAV1@_N2NN@Z@4HA 000000018001bcdf f   mexOMPMask.obj
 0001:0001acfa       ?dtor$7@?0??mult@?$Matrix@N@@UEBAXAEBV?$SpMatrix@N@@AEAV1@_N2NN@Z@4HA 000000018001bcfa f   mexOMPMask.obj
 0001:0001ad20       ?dtor$0@?0??mult@?$Matrix@_J@@UEBAXAEBV?$SpMatrix@_J@@AEAV1@_N2_J3@Z@4HA 000000018001bd20 f   mexOMPMask.obj
 0001:0001ad3b       ?dtor$1@?0??mult@?$Matrix@_J@@UEBAXAEBV?$SpMatrix@_J@@AEAV1@_N2_J3@Z@4HA 000000018001bd3b f   mexOMPMask.obj
 0001:0001ad53       ?dtor$2@?0??mult@?$Matrix@_J@@UEBAXAEBV?$SpMatrix@_J@@AEAV1@_N2_J3@Z@4HA 000000018001bd53 f   mexOMPMask.obj
 0001:0001ad6e       ?dtor$3@?0??mult@?$Matrix@_J@@UEBAXAEBV?$SpMatrix@_J@@AEAV1@_N2_J3@Z@4HA 000000018001bd6e f   mexOMPMask.obj
 0001:0001ad89       ?dtor$4@?0??mult@?$Matrix@_J@@UEBAXAEBV?$SpMatrix@_J@@AEAV1@_N2_J3@Z@4HA 000000018001bd89 f   mexOMPMask.obj
 0001:0001ada4       ?dtor$5@?0??mult@?$Matrix@_J@@UEBAXAEBV?$SpMatrix@_J@@AEAV1@_N2_J3@Z@4HA 000000018001bda4 f   mexOMPMask.obj
 0001:0001adbf       ?dtor$6@?0??mult@?$Matrix@_J@@UEBAXAEBV?$SpMatrix@_J@@AEAV1@_N2_J3@Z@4HA 000000018001bdbf f   mexOMPMask.obj
 0001:0001adda       ?dtor$7@?0??mult@?$Matrix@_J@@UEBAXAEBV?$SpMatrix@_J@@AEAV1@_N2_J3@Z@4HA 000000018001bdda f   mexOMPMask.obj
 0001:0001ae00       ?dtor$0@?0??mult@?$Matrix@_N@@UEBAXAEBV?$SpMatrix@_N@@AEAV1@_N222@Z@4HA 000000018001be00 f   mexOMPMask.obj
 0001:0001ae1b       ?dtor$1@?0??mult@?$Matrix@_N@@UEBAXAEBV?$SpMatrix@_N@@AEAV1@_N222@Z@4HA 000000018001be1b f   mexOMPMask.obj
 0001:0001ae33       ?dtor$2@?0??mult@?$Matrix@_N@@UEBAXAEBV?$SpMatrix@_N@@AEAV1@_N222@Z@4HA 000000018001be33 f   mexOMPMask.obj
 0001:0001ae4e       ?dtor$3@?0??mult@?$Matrix@_N@@UEBAXAEBV?$SpMatrix@_N@@AEAV1@_N222@Z@4HA 000000018001be4e f   mexOMPMask.obj
 0001:0001ae69       ?dtor$4@?0??mult@?$Matrix@_N@@UEBAXAEBV?$SpMatrix@_N@@AEAV1@_N222@Z@4HA 000000018001be69 f   mexOMPMask.obj
 0001:0001ae84       ?dtor$5@?0??mult@?$Matrix@_N@@UEBAXAEBV?$SpMatrix@_N@@AEAV1@_N222@Z@4HA 000000018001be84 f   mexOMPMask.obj
 0001:0001ae9f       ?dtor$6@?0??mult@?$Matrix@_N@@UEBAXAEBV?$SpMatrix@_N@@AEAV1@_N222@Z@4HA 000000018001be9f f   mexOMPMask.obj
 0001:0001aeba       ?dtor$7@?0??mult@?$Matrix@_N@@UEBAXAEBV?$SpMatrix@_N@@AEAV1@_N222@Z@4HA 000000018001beba f   mexOMPMask.obj
 0001:0001aee0       ?dtor$0@?0??mult@?$SpMatrix@M@@UEBAXAEBV1@AEAV?$Matrix@M@@_N2MM@Z@4HA 000000018001bee0 f   mexOMPMask.obj
 0001:0001aefb       ?dtor$1@?0??mult@?$SpMatrix@M@@UEBAXAEBV1@AEAV?$Matrix@M@@_N2MM@Z@4HA 000000018001befb f   mexOMPMask.obj
 0001:0001af13       ?dtor$2@?0??mult@?$SpMatrix@M@@UEBAXAEBV1@AEAV?$Matrix@M@@_N2MM@Z@4HA 000000018001bf13 f   mexOMPMask.obj
 0001:0001af2e       ?dtor$3@?0??mult@?$SpMatrix@M@@UEBAXAEBV1@AEAV?$Matrix@M@@_N2MM@Z@4HA 000000018001bf2e f   mexOMPMask.obj
 0001:0001af49       ?dtor$4@?0??mult@?$SpMatrix@M@@UEBAXAEBV1@AEAV?$Matrix@M@@_N2MM@Z@4HA 000000018001bf49 f   mexOMPMask.obj
 0001:0001af64       ?dtor$5@?0??mult@?$SpMatrix@M@@UEBAXAEBV1@AEAV?$Matrix@M@@_N2MM@Z@4HA 000000018001bf64 f   mexOMPMask.obj
 0001:0001af7f       ?dtor$6@?0??mult@?$SpMatrix@M@@UEBAXAEBV1@AEAV?$Matrix@M@@_N2MM@Z@4HA 000000018001bf7f f   mexOMPMask.obj
 0001:0001af9a       ?dtor$7@?0??mult@?$SpMatrix@M@@UEBAXAEBV1@AEAV?$Matrix@M@@_N2MM@Z@4HA 000000018001bf9a f   mexOMPMask.obj
 0001:0001afc0       ?dtor$0@?0??mult@?$SpMatrix@M@@UEBAXAEBV?$Matrix@M@@AEAV2@_N2MM@Z@4HA 000000018001bfc0 f   mexOMPMask.obj
 0001:0001afdb       ?dtor$1@?0??mult@?$SpMatrix@M@@UEBAXAEBV?$Matrix@M@@AEAV2@_N2MM@Z@4HA 000000018001bfdb f   mexOMPMask.obj
 0001:0001aff6       ?dtor$2@?0??mult@?$SpMatrix@M@@UEBAXAEBV?$Matrix@M@@AEAV2@_N2MM@Z@4HA 000000018001bff6 f   mexOMPMask.obj
 0001:0001b011       ?dtor$3@?0??mult@?$SpMatrix@M@@UEBAXAEBV?$Matrix@M@@AEAV2@_N2MM@Z@4HA 000000018001c011 f   mexOMPMask.obj
 0001:0001b02c       ?dtor$4@?0??mult@?$SpMatrix@M@@UEBAXAEBV?$Matrix@M@@AEAV2@_N2MM@Z@4HA 000000018001c02c f   mexOMPMask.obj
 0001:0001b044       ?dtor$5@?0??mult@?$SpMatrix@M@@UEBAXAEBV?$Matrix@M@@AEAV2@_N2MM@Z@4HA 000000018001c044 f   mexOMPMask.obj
 0001:0001b05f       ?dtor$6@?0??mult@?$SpMatrix@M@@UEBAXAEBV?$Matrix@M@@AEAV2@_N2MM@Z@4HA 000000018001c05f f   mexOMPMask.obj
 0001:0001b07a       ?dtor$7@?0??mult@?$SpMatrix@M@@UEBAXAEBV?$Matrix@M@@AEAV2@_N2MM@Z@4HA 000000018001c07a f   mexOMPMask.obj
 0001:0001b0a0       ?dtor$0@?0??mult@?$SpMatrix@N@@UEBAXAEBV1@AEAV?$Matrix@N@@_N2NN@Z@4HA 000000018001c0a0 f   mexOMPMask.obj
 0001:0001b0bb       ?dtor$1@?0??mult@?$SpMatrix@N@@UEBAXAEBV1@AEAV?$Matrix@N@@_N2NN@Z@4HA 000000018001c0bb f   mexOMPMask.obj
 0001:0001b0d3       ?dtor$2@?0??mult@?$SpMatrix@N@@UEBAXAEBV1@AEAV?$Matrix@N@@_N2NN@Z@4HA 000000018001c0d3 f   mexOMPMask.obj
 0001:0001b0ee       ?dtor$3@?0??mult@?$SpMatrix@N@@UEBAXAEBV1@AEAV?$Matrix@N@@_N2NN@Z@4HA 000000018001c0ee f   mexOMPMask.obj
 0001:0001b109       ?dtor$4@?0??mult@?$SpMatrix@N@@UEBAXAEBV1@AEAV?$Matrix@N@@_N2NN@Z@4HA 000000018001c109 f   mexOMPMask.obj
 0001:0001b124       ?dtor$5@?0??mult@?$SpMatrix@N@@UEBAXAEBV1@AEAV?$Matrix@N@@_N2NN@Z@4HA 000000018001c124 f   mexOMPMask.obj
 0001:0001b13f       ?dtor$6@?0??mult@?$SpMatrix@N@@UEBAXAEBV1@AEAV?$Matrix@N@@_N2NN@Z@4HA 000000018001c13f f   mexOMPMask.obj
 0001:0001b15a       ?dtor$7@?0??mult@?$SpMatrix@N@@UEBAXAEBV1@AEAV?$Matrix@N@@_N2NN@Z@4HA 000000018001c15a f   mexOMPMask.obj
 0001:0001b180       ?dtor$0@?0??mult@?$SpMatrix@N@@UEBAXAEBV?$Matrix@N@@AEAV2@_N2NN@Z@4HA 000000018001c180 f   mexOMPMask.obj
 0001:0001b19b       ?dtor$1@?0??mult@?$SpMatrix@N@@UEBAXAEBV?$Matrix@N@@AEAV2@_N2NN@Z@4HA 000000018001c19b f   mexOMPMask.obj
 0001:0001b1b6       ?dtor$2@?0??mult@?$SpMatrix@N@@UEBAXAEBV?$Matrix@N@@AEAV2@_N2NN@Z@4HA 000000018001c1b6 f   mexOMPMask.obj
 0001:0001b1d1       ?dtor$3@?0??mult@?$SpMatrix@N@@UEBAXAEBV?$Matrix@N@@AEAV2@_N2NN@Z@4HA 000000018001c1d1 f   mexOMPMask.obj
 0001:0001b1ec       ?dtor$4@?0??mult@?$SpMatrix@N@@UEBAXAEBV?$Matrix@N@@AEAV2@_N2NN@Z@4HA 000000018001c1ec f   mexOMPMask.obj
 0001:0001b204       ?dtor$5@?0??mult@?$SpMatrix@N@@UEBAXAEBV?$Matrix@N@@AEAV2@_N2NN@Z@4HA 000000018001c204 f   mexOMPMask.obj
 0001:0001b21f       ?dtor$6@?0??mult@?$SpMatrix@N@@UEBAXAEBV?$Matrix@N@@AEAV2@_N2NN@Z@4HA 000000018001c21f f   mexOMPMask.obj
 0001:0001b23a       ?dtor$7@?0??mult@?$SpMatrix@N@@UEBAXAEBV?$Matrix@N@@AEAV2@_N2NN@Z@4HA 000000018001c23a f   mexOMPMask.obj
 0001:0001b260       ?dtor$0@?0??rank1Update@?$Matrix@_N@@QEAAXAEBV?$Vector@_N@@AEBV?$SpVector@_N@@_N@Z@4HA 000000018001c260 f   mexOMPMask.obj
 0001:0001b260       ?dtor$0@?0??multTrans@?$Matrix@_N@@QEBAXAEBV?$SpVector@_N@@AEAV?$Vector@_N@@_N2@Z@4HA 000000018001c260 f   mexOMPMask.obj
 0001:0001b280       ?dtor$0@?0??norm_2sq_cols@?$SpMatrix@M@@UEBAXAEAV?$Vector@M@@@Z@4HA 000000018001c280 f   mexOMPMask.obj
 0001:0001b280       ?dtor$0@?0??multTrans@?$SpMatrix@M@@QEBAXAEBV?$SpVector@M@@AEAV?$Vector@M@@MM@Z@4HA 000000018001c280 f   mexOMPMask.obj
 0001:0001b280       ?dtor$0@?0??multTrans@?$SpMatrix@N@@QEBAXAEBV?$SpVector@N@@AEAV?$Vector@N@@NN@Z@4HA 000000018001c280 f   mexOMPMask.obj
 0001:0001b280       ?dtor$0@?0??norm_2sq_cols@?$SpMatrix@N@@UEBAXAEAV?$Vector@N@@@Z@4HA 000000018001c280 f   mexOMPMask.obj
 0001:0001b2a0       ?dtor$0@?0??norm_2sq_cols@?$Matrix@M@@UEBAXAEAV?$Vector@M@@@Z@4HA 000000018001c2a0 f   mexOMPMask.obj
 0001:0001b2c0       ?dtor$0@?0??norm_2sq_cols@?$Matrix@N@@UEBAXAEAV?$Vector@N@@@Z@4HA 000000018001c2c0 f   mexOMPMask.obj
 0001:0001b2e0       ?dtor$0@?0??norm_2sq_cols@?$Matrix@_J@@UEBAXAEAV?$Vector@_J@@@Z@4HA 000000018001c2e0 f   mexOMPMask.obj
 0001:0001b300       ?dtor$0@?0??norm_2sq_cols@?$Matrix@_N@@UEBAXAEAV?$Vector@_N@@@Z@4HA 000000018001c300 f   mexOMPMask.obj
 0001:0001b320       ?dtor$0@?0??rank1Update@?$Matrix@M@@QEAAXAEBV?$Vector@M@@AEBV?$SpVector@M@@M@Z@4HA 000000018001c320 f   mexOMPMask.obj
 0001:0001b320       ?dtor$0@?0??multTrans@?$Matrix@M@@QEBAXAEBV?$SpVector@M@@AEAV?$Vector@M@@MM@Z@4HA 000000018001c320 f   mexOMPMask.obj
 0001:0001b320       ?dtor$0@?0??copyCol@?$ProdMatrix@M@@UEBAX_JAEAV?$Vector@M@@@Z@4HA 000000018001c320 f   mexOMPMask.obj
 0001:0001b340       ?dtor$0@?0??rank1Update@?$Matrix@_J@@QEAAXAEBV?$Vector@_J@@AEBV?$SpVector@_J@@_J@Z@4HA 000000018001c340 f   mexOMPMask.obj
 0001:0001b340       ?dtor$0@?0??multTrans@?$Matrix@_J@@QEBAXAEBV?$SpVector@_J@@AEAV?$Vector@_J@@_J2@Z@4HA 000000018001c340 f   mexOMPMask.obj
 0001:0001b358       ?fin$0@?0???_L@YAXPEAX_KHP6AX0@Z2@Z@4HA 000000018001c358 f   MSVCRT:ehvecctr.obj
 0001:0001b384       ?fin$0@?0???_M@YAXPEAX_KHP6AX0@Z@Z@4HA 000000018001c384 f   MSVCRT:ehvecdtr.obj
 0001:0001b3b0       ?filt$0@?0??__ArrayUnwind@@YAXPEAX_KHP6AX0@Z@Z@4HA 000000018001c3b0 f   MSVCRT:ehvecdtr.obj
 0001:0001b3f1       _onexit$fin$0              000000018001c3f1 f   MSVCRT:atonexit.obj
 0001:0001b40c       __DllMainCRTStartup$filt$0 000000018001c40c f   MSVCRT:crtdll.obj
 0001:0001b431       __DllMainCRTStartup$fin$1  000000018001c431 f   MSVCRT:crtdll.obj
 0001:0001b450       _IsNonwritableInCurrentImage$filt$0 000000018001c450 f   MSVCRT:pesect.obj
 0001:0001b470       ??__E?_Generic_object@?$_Error_objects@H@std@@2V_Generic_error_category@2@A@@YAXXZ 000000018001c470 f   mexOMPMask.obj
 0001:0001b4a0       ??__E?_Iostream_object@?$_Error_objects@H@std@@2V_Iostream_error_category@2@A@@YAXXZ 000000018001c4a0 f   mexOMPMask.obj
 0001:0001b4d0       ??__E?_System_object@?$_Error_objects@H@std@@2V_System_error_category@2@A@@YAXXZ 000000018001c4d0 f   mexOMPMask.obj
 0001:0001b500       ??__E?id@?$num_put@DV?$back_insert_iterator@V?$basic_string@DU?$char_traits@D@std@@V?$allocator@D@2@@std@@@std@@@std@@2V0locale@2@A@@YAXXZ 000000018001c500 f   mexOMPMask.obj
 0001:0001b520       ??__E?id@?$num_put@_WV?$back_insert_iterator@V?$basic_string@_WU?$char_traits@_W@std@@V?$allocator@_W@2@@std@@@std@@@std@@2V0locale@2@A@@YAXXZ 000000018001c520 f   mexOMPMask.obj
 0001:0001b540       ??__Eallocator_arg@std@@YAXXZ 000000018001c540 f   mexOMPMask.obj
 0001:0001b560       ??__Epiecewise_construct@std@@YAXXZ 000000018001c560 f   mexOMPMask.obj
 0001:0001b580       ??__F?_Generic_object@?$_Error_objects@H@std@@2V_Generic_error_category@2@A@@YAXXZ 000000018001c580 f   mexOMPMask.obj
 0001:0001b5a0       ??__F?_Iostream_object@?$_Error_objects@H@std@@2V_Iostream_error_category@2@A@@YAXXZ 000000018001c5a0 f   mexOMPMask.obj
 0001:0001b5c0       ??__F?_System_object@?$_Error_objects@H@std@@2V_System_error_category@2@A@@YAXXZ 000000018001c5c0 f   mexOMPMask.obj
 0002:00000348       piecewise_construct$initializer$ 000000018001d348     mexOMPMask.obj
 0002:00000350       allocator_arg$initializer$ 000000018001d350     mexOMPMask.obj
 0002:00000358       ?_Generic_object$initializer$@?$_Error_objects@H@std@@2P6AXXZEA 000000018001d358     mexOMPMask.obj
 0002:00000360       ?_Iostream_object$initializer$@?$_Error_objects@H@std@@2P6AXXZEA 000000018001d360     mexOMPMask.obj
 0002:00000368       ?_System_object$initializer$@?$_Error_objects@H@std@@2P6AXXZEA 000000018001d368     mexOMPMask.obj
 0002:00000370       ?id$initializer$@?$num_put@DV?$back_insert_iterator@V?$basic_string@DU?$char_traits@D@std@@V?$allocator@D@2@@std@@@std@@@std@@2P6AXXZEA 000000018001d370     mexOMPMask.obj
 0002:00000378       ?id$initializer$@?$num_put@_WV?$back_insert_iterator@V?$basic_string@_WU?$char_traits@_W@std@@V?$allocator@_W@2@@std@@@std@@@std@@2P6AXXZEA 000000018001d378     mexOMPMask.obj
 0002:00000390       pcinit                     000000018001d390     MSVCRT:crtdll.obj
 0002:00000398       pinit                      000000018001d398     MSVCRT:atonexit.obj
 0002:000003b0       $SG101578                  000000018001d3b0     mexOMPMask.obj
 0002:000003d8       $SG114303                  000000018001d3d8     mexOMPMask.obj
 0002:000003f8       $SG114305                  000000018001d3f8     mexOMPMask.obj
 0002:00000418       $SG113321                  000000018001d418     mexOMPMask.obj
 0002:00000430       $cppxdata$?_Copy@?$basic_string@DU?$char_traits@D@std@@V?$allocator@D@2@@std@@QEAAX_K0@Z 000000018001d430     mexOMPMask.obj
 0002:00000458       $cppxdata$??$?6U?$char_traits@D@std@@@std@@YAAEAV?$basic_ostream@DU?$char_traits@D@std@@@0@AEAV10@PEBD@Z 000000018001d458     mexOMPMask.obj
 0002:00000480       $cppxdata$??$callFunction@N@@YAXQEAPEAUmxArray_tag@@QEAPEBU0@H@Z 000000018001d480     mexOMPMask.obj
 0002:000004a8       $cppxdata$??$callFunction@M@@YAXQEAPEAUmxArray_tag@@QEAPEBU0@H@Z 000000018001d4a8     mexOMPMask.obj
 0002:000004d0       $cppxdata$??0sentry@?$basic_ostream@DU?$char_traits@D@std@@@std@@QEAA@AEAV12@@Z 000000018001d4d0     mexOMPMask.obj
 0002:000004f8       $cppxdata$??0?$Matrix@N@@QEAA@_J0@Z 000000018001d4f8     mexOMPMask.obj
 0002:00000520       $cppxdata$??1?$Matrix@N@@UEAA@XZ 000000018001d520     mexOMPMask.obj
 0002:00000548       $cppxdata$?multTrans@?$Matrix@N@@QEBAXAEBV?$SpVector@N@@AEAV?$Vector@N@@NN@Z 000000018001d548     mexOMPMask.obj
 0002:00000570       $cppxdata$?mult@?$Matrix@N@@UEBAXAEBV?$SpMatrix@N@@AEAV1@_N2NN@Z 000000018001d570     mexOMPMask.obj
 0002:00000598       $cppxdata$?norm_2sq_cols@?$Matrix@N@@UEBAXAEAV?$Vector@N@@@Z 000000018001d598     mexOMPMask.obj
 0002:000005c0       $cppxdata$?rank1Update@?$Matrix@N@@QEAAXAEBV?$Vector@N@@AEBV?$SpVector@N@@N@Z 000000018001d5c0     mexOMPMask.obj
 0002:000005e8       $cppxdata$??1?$Matrix@_N@@UEAA@XZ 000000018001d5e8     mexOMPMask.obj
 0002:00000610       $cppxdata$?multTrans@?$Matrix@_N@@QEBAXAEBV?$SpVector@_N@@AEAV?$Vector@_N@@_N2@Z 000000018001d610     mexOMPMask.obj
 0002:00000638       $cppxdata$?mult@?$Matrix@_N@@UEBAXAEBV?$SpMatrix@_N@@AEAV1@_N222@Z 000000018001d638     mexOMPMask.obj
 0002:00000660       $cppxdata$?norm_2sq_cols@?$Matrix@_N@@UEBAXAEAV?$Vector@_N@@@Z 000000018001d660     mexOMPMask.obj
 0002:00000688       $cppxdata$?rank1Update@?$Matrix@_N@@QEAAXAEBV?$Vector@_N@@AEBV?$SpVector@_N@@_N@Z 000000018001d688     mexOMPMask.obj
 0002:000006b0       $cppxdata$??1?$SpMatrix@N@@UEAA@XZ 000000018001d6b0     mexOMPMask.obj
 0002:000006d8       $cppxdata$?getGroup@?$SpMatrix@N@@UEBAXAEAV?$Matrix@N@@AEBV?$vector@V?$list@_JV?$allocator@_J@std@@@std@@V?$allocator@V?$list@_JV?$allocator@_J@std@@@std@@@2@@std@@_J@Z 000000018001d6d8     mexOMPMask.obj
 0002:00000700       $cppxdata$?XtX@?$SpMatrix@N@@UEBAXAEAV?$Matrix@N@@@Z 000000018001d700     mexOMPMask.obj
 0002:00000728       $cppxdata$?multTrans@?$SpMatrix@N@@QEBAXAEBV?$SpVector@N@@AEAV?$Vector@N@@NN@Z 000000018001d728     mexOMPMask.obj
 0002:00000750       $cppxdata$?mult@?$SpMatrix@N@@UEBAXAEBV?$Matrix@N@@AEAV2@_N2NN@Z 000000018001d750     mexOMPMask.obj
 0002:00000778       $cppxdata$?mult@?$SpMatrix@N@@UEBAXAEBV1@AEAV?$Matrix@N@@_N2NN@Z 000000018001d778     mexOMPMask.obj
 0002:000007a0       $cppxdata$?norm_2sq_cols@?$SpMatrix@N@@UEBAXAEAV?$Vector@N@@@Z 000000018001d7a0     mexOMPMask.obj
 0002:000007c8       $cppxdata$??$omp_mask@N@@YAXAEBV?$Matrix@N@@0AEAV?$SpMatrix@N@@AEBV?$Matrix@_N@@PEBHPEBN4_N55HPEAV0@@Z 000000018001d7c8     mexOMPMask.obj
 0002:000007f0       $cppxdata$??0?$Matrix@M@@QEAA@_J0@Z 000000018001d7f0     mexOMPMask.obj
 0002:00000818       $cppxdata$??1?$Matrix@M@@UEAA@XZ 000000018001d818     mexOMPMask.obj
 0002:00000840       $cppxdata$?multTrans@?$Matrix@M@@QEBAXAEBV?$SpVector@M@@AEAV?$Vector@M@@MM@Z 000000018001d840     mexOMPMask.obj
 0002:00000868       $cppxdata$?mult@?$Matrix@M@@UEBAXAEBV?$SpMatrix@M@@AEAV1@_N2MM@Z 000000018001d868     mexOMPMask.obj
 0002:00000890       $cppxdata$?norm_2sq_cols@?$Matrix@M@@UEBAXAEAV?$Vector@M@@@Z 000000018001d890     mexOMPMask.obj
 0002:000008b8       $cppxdata$?rank1Update@?$Matrix@M@@QEAAXAEBV?$Vector@M@@AEBV?$SpVector@M@@M@Z 000000018001d8b8     mexOMPMask.obj
 0002:000008e0       $cppxdata$??1?$SpMatrix@M@@UEAA@XZ 000000018001d8e0     mexOMPMask.obj
 0002:00000908       $cppxdata$?getGroup@?$SpMatrix@M@@UEBAXAEAV?$Matrix@M@@AEBV?$vector@V?$list@_JV?$allocator@_J@std@@@std@@V?$allocator@V?$list@_JV?$allocator@_J@std@@@std@@@2@@std@@_J@Z 000000018001d908     mexOMPMask.obj
 0002:00000930       $cppxdata$?XtX@?$SpMatrix@M@@UEBAXAEAV?$Matrix@M@@@Z 000000018001d930     mexOMPMask.obj
 0002:00000958       $cppxdata$?multTrans@?$SpMatrix@M@@QEBAXAEBV?$SpVector@M@@AEAV?$Vector@M@@MM@Z 000000018001d958     mexOMPMask.obj
 0002:00000980       $cppxdata$?mult@?$SpMatrix@M@@UEBAXAEBV?$Matrix@M@@AEAV2@_N2MM@Z 000000018001d980     mexOMPMask.obj
 0002:000009a8       $cppxdata$?mult@?$SpMatrix@M@@UEBAXAEBV1@AEAV?$Matrix@M@@_N2MM@Z 000000018001d9a8     mexOMPMask.obj
 0002:000009d0       $cppxdata$?norm_2sq_cols@?$SpMatrix@M@@UEBAXAEAV?$Vector@M@@@Z 000000018001d9d0     mexOMPMask.obj
 0002:000009f8       $cppxdata$??$omp_mask@M@@YAXAEBV?$Matrix@M@@0AEAV?$SpMatrix@M@@AEBV?$Matrix@_N@@PEBHPEBM4_N55HPEAV0@@Z 000000018001d9f8     mexOMPMask.obj
 0002:00000a20       $cppxdata$??$?6DU?$char_traits@D@std@@V?$allocator@D@1@@std@@YAAEAV?$basic_ostream@DU?$char_traits@D@std@@@0@AEAV10@AEBV?$basic_string@DU?$char_traits@D@std@@V?$allocator@D@2@@0@@Z 000000018001da20     mexOMPMask.obj
 0002:00000a48       $cppxdata$??0?$Matrix@_J@@QEAA@_J0@Z 000000018001da48     mexOMPMask.obj
 0002:00000a70       $cppxdata$??1?$Matrix@_J@@UEAA@XZ 000000018001da70     mexOMPMask.obj
 0002:00000a98       $cppxdata$?multTrans@?$Matrix@_J@@QEBAXAEBV?$SpVector@_J@@AEAV?$Vector@_J@@_J2@Z 000000018001da98     mexOMPMask.obj
 0002:00000ac0       $cppxdata$?mult@?$Matrix@_J@@UEBAXAEBV?$SpMatrix@_J@@AEAV1@_N2_J3@Z 000000018001dac0     mexOMPMask.obj
 0002:00000ae8       $cppxdata$?norm_2sq_cols@?$Matrix@_J@@UEBAXAEAV?$Vector@_J@@@Z 000000018001dae8     mexOMPMask.obj
 0002:00000b10       $cppxdata$?rank1Update@?$Matrix@_J@@QEAAXAEBV?$Vector@_J@@AEBV?$SpVector@_J@@_J@Z 000000018001db10     mexOMPMask.obj
 0002:00000b38       $cppxdata$??0?$ProdMatrix@N@@QEAA@AEBV?$Matrix@N@@_N@Z 000000018001db38     mexOMPMask.obj
 0002:00000b60       $cppxdata$??1?$ProdMatrix@N@@UEAA@XZ 000000018001db60     mexOMPMask.obj
 0002:00000b88       $cppxdata$?copyCol@?$ProdMatrix@N@@UEBAX_JAEAV?$Vector@N@@@Z 000000018001db88     mexOMPMask.obj
 0002:00000bb0       $cppxdata$?extract_rawCol@?$ProdMatrix@N@@UEBAX_JPEAN@Z 000000018001dbb0     mexOMPMask.obj
 0002:00000bd8       $cppxdata$?add_rawCol@?$ProdMatrix@N@@UEBAX_JPEANN@Z 000000018001dbd8     mexOMPMask.obj
 0002:00000c00       $cppxdata$?diag@?$ProdMatrix@N@@UEBAXAEAV?$Vector@N@@@Z 000000018001dc00     mexOMPMask.obj
 0002:00000c28       $cppxdata$??R?$ProdMatrix@N@@UEBAN_J0@Z 000000018001dc28     mexOMPMask.obj
 0002:00000c50       $cppxdata$??$coreORMP@N@@YAXAEAV?$Vector@N@@00AEAV?$Matrix@N@@1110AEBV?$AbstractMatrix@N@@AEAV?$Vector@_J@@0AEANPEBNPEBH5PEAN@Z 000000018001dc50     mexOMPMask.obj
 0002:00000c78       $cppxdata$??0?$ProdMatrix@M@@QEAA@AEBV?$Matrix@M@@_N@Z 000000018001dc78     mexOMPMask.obj
 0002:00000ca0       $cppxdata$??1?$ProdMatrix@M@@UEAA@XZ 000000018001dca0     mexOMPMask.obj
 0002:00000cc8       $cppxdata$?copyCol@?$ProdMatrix@M@@UEBAX_JAEAV?$Vector@M@@@Z 000000018001dcc8     mexOMPMask.obj
 0002:00000cf0       $cppxdata$?extract_rawCol@?$ProdMatrix@M@@UEBAX_JPEAM@Z 000000018001dcf0     mexOMPMask.obj
 0002:00000d18       $cppxdata$?add_rawCol@?$ProdMatrix@M@@UEBAX_JPEAMM@Z 000000018001dd18     mexOMPMask.obj
 0002:00000d40       $cppxdata$?diag@?$ProdMatrix@M@@UEBAXAEAV?$Vector@M@@@Z 000000018001dd40     mexOMPMask.obj
 0002:00000d68       $cppxdata$??R?$ProdMatrix@M@@UEBAM_J0@Z 000000018001dd68     mexOMPMask.obj
 0002:00000d90       $cppxdata$??$coreORMP@M@@YAXAEAV?$Vector@M@@00AEAV?$Matrix@M@@1110AEBV?$AbstractMatrix@M@@AEAV?$Vector@_J@@0AEAMPEBMPEBH5PEAM@Z 000000018001dd90     mexOMPMask.obj
 0002:00000db8       $cppxdata$??$construct@PEADAEAPEAD@?$allocator@D@std@@QEAAXPEAPEADAEAPEAD@Z 000000018001ddb8     mexOMPMask.obj
 0002:00002f78       $unwind$mexFunction        000000018001ff78     mexOMPMask.obj
 0002:00002f80       $unwind$?gettimeofday@@YAHPEAUtimeval@@PEAUtimezone@@@Z 000000018001ff80     mexOMPMask.obj
 0002:00002f88       $unwind$?init_omp@@YAHH@Z  000000018001ff88     mexOMPMask.obj
 0002:00002f90       $unwind$?cblas_transpose@@YAPEADW4CBLAS_TRANSPOSE@@@Z 000000018001ff90     mexOMPMask.obj
 0002:00002f98       $unwind$?cblas_uplo@@YAPEADW4CBLAS_UPLO@@@Z 000000018001ff98     mexOMPMask.obj
 0002:00002fa0       $unwind$?cblas_diag@@YAPEADW4CBLAS_DIAG@@@Z 000000018001ffa0     mexOMPMask.obj
 0002:00002fa8       $unwind$?cblas_side@@YAPEADW4CBLAS_SIDE@@@Z 000000018001ffa8     mexOMPMask.obj
 0002:00002fb0       $unwind$??0Timer@@QEAA@XZ  000000018001ffb0     mexOMPMask.obj
 0002:00002fb8       $unwind$??1Timer@@QEAA@XZ  000000018001ffb8     mexOMPMask.obj
 0002:00002fc0       $unwind$?checkSize@@YA_NPEBUmxArray_tag@@HH@Z 000000018001ffc0     mexOMPMask.obj
 0002:00002fc8       $unwind$?super_flush@@YAXAEAV?$basic_ostream@DU?$char_traits@D@std@@@std@@@Z 000000018001ffc8     mexOMPMask.obj
 0002:00002fd0       $unwind$??$sort@N_J@@YAXPEA_JPEAN_J2@Z 000000018001ffd0     mexOMPMask.obj
 0002:00002fd8       $unwind$??$sort@M_J@@YAXPEA_JPEAM_J2@Z 000000018001ffd8     mexOMPMask.obj
 0002:00002fe0       $unwind$??$abs@M@@YAMM@Z   000000018001ffe0     mexOMPMask.obj
 0002:00002fe0       $unwind$fabsf              000000018001ffe0     mexOMPMask.obj
 0002:00002fe0       $unwind$?sqrt@@YAMM@Z      000000018001ffe0     mexOMPMask.obj
 0002:00002fe0       $unwind$??$abs@N@@YANN@Z   000000018001ffe0     mexOMPMask.obj
 0002:00002fe8       $unwind$??8error_category@std@@QEBA_NAEBV01@@Z 000000018001ffe8     mexOMPMask.obj
 0002:00002fe8       $unwind$??8?$_List_const_iterator@V?$_List_val@U?$_List_simple_types@_J@std@@@std@@@std@@QEBA_NAEBV01@@Z 000000018001ffe8     mexOMPMask.obj
 0002:00002fe8       $unwind$?eq_int_type@?$char_traits@D@std@@SA_NAEBH0@Z 000000018001ffe8     mexOMPMask.obj
 0002:00002fe8       $unwind$?set@?$Vector@_J@@QEAAX_J@Z 000000018001ffe8     mexOMPMask.obj
 0002:00002ff0       $unwind$??__Epiecewise_construct@std@@YAXXZ 000000018001fff0     mexOMPMask.obj
 0002:00002ff0       $unwind$??__Eallocator_arg@std@@YAXXZ 000000018001fff0     mexOMPMask.obj
 0002:00002ff8       $unwind$?sub@?$Vector@N@@QEAAXAEBV1@@Z 000000018001fff8     mexOMPMask.obj
 0002:00002ff8       $unwind$?copy@?$Matrix@_N@@QEAAXAEBV1@@Z 000000018001fff8     mexOMPMask.obj
 0002:00002ff8       $unwind$?copyTo@?$Matrix@_N@@UEBAXAEAV1@@Z 000000018001fff8     mexOMPMask.obj
 0002:00002ff8       $unwind$?copy@?$Matrix@N@@QEAAXAEBV1@@Z 000000018001fff8     mexOMPMask.obj
 0002:00002ff8       $unwind$?copyTo@?$Matrix@N@@UEBAXAEAV1@@Z 000000018001fff8     mexOMPMask.obj
 0002:00002ff8       $unwind$?copy@?$Matrix@_J@@QEAAXAEBV1@@Z 000000018001fff8     mexOMPMask.obj
 0002:00002ff8       $unwind$?sqr@?$Vector@N@@QEAAXAEBV1@@Z 000000018001fff8     mexOMPMask.obj
 0002:00002ff8       $unwind$?copy@?$Vector@N@@QEAAXAEBV1@@Z 000000018001fff8     mexOMPMask.obj
 0002:00002ff8       $unwind$??A?$SpMatrix@N@@UEBAN_J@Z 000000018001fff8     mexOMPMask.obj
 0002:00002ff8       $unwind$?_Inside@?$basic_string@DU?$char_traits@D@std@@V?$allocator@D@2@@std@@QEAA_NPEBD@Z 000000018001fff8     mexOMPMask.obj
 0002:00002ff8       $unwind$?copyTo@?$Matrix@_J@@UEBAXAEAV1@@Z 000000018001fff8     mexOMPMask.obj
 0002:00002ff8       $unwind$?scal@?$Matrix@_J@@QEAAX_J@Z 000000018001fff8     mexOMPMask.obj
 0002:00002ff8       $unwind$?allocate@?$allocator@D@std@@QEAAPEAD_K@Z 000000018001fff8     mexOMPMask.obj
 0002:00002ff8       $unwind$?copy@?$Vector@M@@QEAAXAEBV1@@Z 000000018001fff8     mexOMPMask.obj
 0002:00002ff8       $unwind$??$destroy@PEAD@?$_Wrap_alloc@V?$allocator@D@std@@@std@@QEAAXPEAPEAD@Z 000000018001fff8     mexOMPMask.obj
 0002:00002ff8       $unwind$?sub@?$Vector@M@@QEAAXAEBV1@@Z 000000018001fff8     mexOMPMask.obj
 0002:00002ff8       $unwind$?div@?$Vector@M@@QEAAXAEBV1@@Z 000000018001fff8     mexOMPMask.obj
 0002:00002ff8       $unwind$??$destroy@PEAD@?$allocator_traits@V?$allocator@D@std@@@std@@SAXAEAV?$allocator@D@1@PEAPEAD@Z 000000018001fff8     mexOMPMask.obj
 0002:00002ff8       $unwind$?sqr@?$Vector@M@@QEAAXAEBV1@@Z 000000018001fff8     mexOMPMask.obj
 0002:00002ff8       $unwind$?copyTo@?$SpMatrix@M@@UEBAXAEAV?$Matrix@M@@@Z 000000018001fff8     mexOMPMask.obj
 0002:00002ff8       $unwind$?copyTo@?$SpMatrix@N@@UEBAXAEAV?$Matrix@N@@@Z 000000018001fff8     mexOMPMask.obj
 0002:00002ff8       $unwind$?allocate@?$_Wrap_alloc@V?$allocator@D@std@@@std@@QEAAPEAD_K@Z 000000018001fff8     mexOMPMask.obj
 0002:00002ff8       $unwind$??A?$SpMatrix@M@@UEBAM_J@Z 000000018001fff8     mexOMPMask.obj
 0002:00002ff8       $unwind$?erase@?$basic_string@DU?$char_traits@D@std@@V?$allocator@D@2@@std@@QEAAAEAV12@_K@Z 000000018001fff8     mexOMPMask.obj
 0002:00002ff8       $unwind$??0?$_String_alloc@$0A@U?$_String_base_types@DV?$allocator@D@std@@@std@@@std@@QEAA@AEBV?$allocator@D@1@@Z 000000018001fff8     mexOMPMask.obj
 0002:00002ff8       $unwind$?assign@?$basic_string@DU?$char_traits@D@std@@V?$allocator@D@2@@std@@QEAAAEAV12@PEBD@Z 000000018001fff8     mexOMPMask.obj
 0002:00002ff8       $unwind$?begin@?$list@_JV?$allocator@_J@std@@@std@@QEBA?AV?$_List_const_iterator@V?$_List_val@U?$_List_simple_types@_J@std@@@std@@@2@XZ 000000018001fff8     mexOMPMask.obj
 0002:00002ff8       $unwind$?copy@?$Matrix@M@@QEAAXAEBV1@@Z 000000018001fff8     mexOMPMask.obj
 0002:00002ff8       $unwind$?scal@?$Vector@_J@@QEAAX_J@Z 000000018001fff8     mexOMPMask.obj
 0002:00002ff8       $unwind$?div@?$Vector@N@@QEAAXAEBV1@@Z 000000018001fff8     mexOMPMask.obj
 0002:00002ff8       $unwind$?end@?$list@_JV?$allocator@_J@std@@@std@@QEBA?AV?$_List_const_iterator@V?$_List_val@U?$_List_simple_types@_J@std@@@std@@@2@XZ 000000018001fff8     mexOMPMask.obj
 0002:00002ff8       $unwind$?_Getal@?$_String_alloc@$0A@U?$_String_base_types@DV?$allocator@D@std@@@std@@@std@@QEBA?AU?$_Wrap_alloc@V?$allocator@D@std@@@2@XZ 000000018001fff8     mexOMPMask.obj
 0002:00002ff8       $unwind$?copyTo@?$Matrix@M@@UEBAXAEAV1@@Z 000000018001fff8     mexOMPMask.obj
 0002:00003000       $unwind$?_Copy@?$basic_string@DU?$char_traits@D@std@@V?$allocator@D@2@@std@@QEAAX_K0@Z 0000000180020000     mexOMPMask.obj
 0002:00003010       $stateUnwindMap$?_Copy@?$basic_string@DU?$char_traits@D@std@@V?$allocator@D@2@@std@@QEAAX_K0@Z 0000000180020010     mexOMPMask.obj
 0002:00003030       $tryMap$?_Copy@?$basic_string@DU?$char_traits@D@std@@V?$allocator@D@2@@std@@QEAAX_K0@Z 0000000180020030     mexOMPMask.obj
 0002:00003058       $handlerMap$0$?_Copy@?$basic_string@DU?$char_traits@D@std@@V?$allocator@D@2@@std@@QEAAX_K0@Z 0000000180020058     mexOMPMask.obj
 0002:0000306c       $handlerMap$1$?_Copy@?$basic_string@DU?$char_traits@D@std@@V?$allocator@D@2@@std@@QEAAX_K0@Z 000000018002006c     mexOMPMask.obj
 0002:00003080       $ip2state$?_Copy@?$basic_string@DU?$char_traits@D@std@@V?$allocator@D@2@@std@@QEAAX_K0@Z 0000000180020080     mexOMPMask.obj
 0002:000030d0       $unwind$?catch$0@?0??_Copy@?$basic_string@DU?$char_traits@D@std@@V?$allocator@D@2@@std@@QEAAX_K0@Z@4HA 00000001800200d0     mexOMPMask.obj
 0002:000030d0       $unwind$?catch$1@?0??_Copy@?$basic_string@DU?$char_traits@D@std@@V?$allocator@D@2@@std@@QEAAX_K0@Z@4HA 00000001800200d0     mexOMPMask.obj
 0002:000030e0       $unwind$?_Tidy@?$basic_string@DU?$char_traits@D@std@@V?$allocator@D@2@@std@@QEAAX_N_K@Z 00000001800200e0     mexOMPMask.obj
 0002:000030e8       $unwind$?equivalent@error_category@std@@UEBA_NHAEBVerror_condition@2@@Z 00000001800200e8     mexOMPMask.obj
 0002:000030f0       $unwind$?copyRow@?$SpMatrix@N@@UEBAX_JAEAV?$Vector@N@@@Z 00000001800200f0     mexOMPMask.obj
 0002:000030f0       $unwind$?message@_Generic_error_category@std@@UEBA?AV?$basic_string@DU?$char_traits@D@std@@V?$allocator@D@2@@2@H@Z 00000001800200f0     mexOMPMask.obj
 0002:000030f0       $unwind$?copyRow@?$SpMatrix@M@@UEBAX_JAEAV?$Vector@M@@@Z 00000001800200f0     mexOMPMask.obj
 0002:000030f0       $unwind$?message@_System_error_category@std@@UEBA?AV?$basic_string@DU?$char_traits@D@std@@V?$allocator@D@2@@2@H@Z 00000001800200f0     mexOMPMask.obj
 0002:000030f0       $unwind$?copyMask@?$Vector@N@@QEBAXAEAV1@AEAV?$Vector@_N@@@Z 00000001800200f0     mexOMPMask.obj
 0002:000030f0       $unwind$?copyMask@?$Vector@M@@QEBAXAEAV1@AEAV?$Vector@_N@@@Z 00000001800200f0     mexOMPMask.obj
 0002:000030f8       $unwind$??$vDiv@M@@YAX_JPEAM11@Z 00000001800200f8     mexOMPMask.obj
 0002:000030f8       $unwind$??$cblas_scal@_J@@YAX_J0PEA_J0@Z 00000001800200f8     mexOMPMask.obj
 0002:000030f8       $unwind$??$cblas_copy@_J@@YAX_JPEA_J010@Z 00000001800200f8     mexOMPMask.obj
 0002:000030f8       $unwind$??$vSub@M@@YAX_JPEAM11@Z 00000001800200f8     mexOMPMask.obj
 0002:000030f8       $unwind$??$cblas_copy@_N@@YAX_JPEA_N010@Z 00000001800200f8     mexOMPMask.obj
 0002:000030f8       $unwind$??$cblas_axpy@_J@@YAX_J0PEA_J010@Z 00000001800200f8     mexOMPMask.obj
 0002:000030f8       $unwind$??$vSub@N@@YAX_JPEAN11@Z 00000001800200f8     mexOMPMask.obj
 0002:000030f8       $unwind$??$vDiv@N@@YAX_JPEAN11@Z 00000001800200f8     mexOMPMask.obj
 0002:00003100       $unwind$??$cblas_axpy@M@@YAX_JMPEAM010@Z 0000000180020100     mexOMPMask.obj
 0002:00003100       $unwind$??$cblas_axpy@N@@YAX_JNPEAN010@Z 0000000180020100     mexOMPMask.obj
 0002:00003100       $unwind$?add_rawCol@?$Matrix@M@@UEBAX_JPEAMM@Z 0000000180020100     mexOMPMask.obj
 0002:00003100       $unwind$?add_rawCol@?$Matrix@N@@UEBAX_JPEANN@Z 0000000180020100     mexOMPMask.obj
 0002:00003108       $unwind$??$cblas_axpy@_N@@YAX_J_NPEA_N020@Z 0000000180020108     mexOMPMask.obj
 0002:00003110       $unwind$??$cblas_scal@M@@YAX_JMPEAM0@Z 0000000180020110     mexOMPMask.obj
 0002:00003110       $unwind$??$cblas_scal@N@@YAX_JNPEAN0@Z 0000000180020110     mexOMPMask.obj
 0002:00003118       $unwind$??$cblas_trmv@M@@YAXW4CBLAS_ORDER@@W4CBLAS_UPLO@@W4CBLAS_TRANSPOSE@@W4CBLAS_DIAG@@_JPEAM454@Z 0000000180020118     mexOMPMask.obj
 0002:00003118       $unwind$??$cblas_trmv@N@@YAXW4CBLAS_ORDER@@W4CBLAS_UPLO@@W4CBLAS_TRANSPOSE@@W4CBLAS_DIAG@@_JPEAN454@Z 0000000180020118     mexOMPMask.obj
 0002:00003120       $unwind$??$cblas_gemm@M@@YAXW4CBLAS_ORDER@@W4CBLAS_TRANSPOSE@@1_J22MPEAM232M32@Z 0000000180020120     mexOMPMask.obj
 0002:00003120       $unwind$??$cblas_gemm@N@@YAXW4CBLAS_ORDER@@W4CBLAS_TRANSPOSE@@1_J22NPEAN232N32@Z 0000000180020120     mexOMPMask.obj
 0002:00003128       $unwind$??$cblas_syrk@M@@YAXW4CBLAS_ORDER@@W4CBLAS_UPLO@@W4CBLAS_TRANSPOSE@@_J3MPEAM3M43@Z 0000000180020128     mexOMPMask.obj
 0002:00003128       $unwind$??$cblas_syrk@N@@YAXW4CBLAS_ORDER@@W4CBLAS_UPLO@@W4CBLAS_TRANSPOSE@@_J3NPEAN3N43@Z 0000000180020128     mexOMPMask.obj
 0002:00003128       $unwind$??$cblas_gemv@N@@YAXW4CBLAS_ORDER@@W4CBLAS_TRANSPOSE@@_J2NPEAN232N32@Z 0000000180020128     mexOMPMask.obj
 0002:00003128       $unwind$??$cblas_gemv@M@@YAXW4CBLAS_ORDER@@W4CBLAS_TRANSPOSE@@_J2MPEAM232M32@Z 0000000180020128     mexOMPMask.obj
 0002:00003130       $unwind$?clear@?$SpVector@_N@@QEAAXXZ 0000000180020130     mexOMPMask.obj
 0002:00003130       $unwind$?nrm2sq@?$Vector@N@@QEBANXZ 0000000180020130     mexOMPMask.obj
 0002:00003130       $unwind$?clear@?$Matrix@_J@@QEAAXXZ 0000000180020130     mexOMPMask.obj
 0002:00003130       $unwind$?length@?$char_traits@D@std@@SA_KPEBD@Z 0000000180020130     mexOMPMask.obj
 0002:00003130       $unwind$?nrm2sq@?$Vector@_N@@QEBA_NXZ 0000000180020130     mexOMPMask.obj
 0002:00003130       $unwind$?_Myptr@?$_String_val@U?$_Simple_types@D@std@@@std@@QEAAPEADXZ 0000000180020130     mexOMPMask.obj
 0002:00003130       $unwind$?_Myptr@?$_String_val@U?$_Simple_types@D@std@@@std@@QEBAPEBDXZ 0000000180020130     mexOMPMask.obj
 0002:00003130       $unwind$?clear@?$Matrix@N@@QEAAXXZ 0000000180020130     mexOMPMask.obj
 0002:00003130       $unwind$?clear@?$SpVector@M@@QEAAXXZ 0000000180020130     mexOMPMask.obj
 0002:00003130       $unwind$?clear@?$Vector@_N@@QEAAXXZ 0000000180020130     mexOMPMask.obj
 0002:00003130       $unwind$?clear@?$SpVector@N@@QEAAXXZ 0000000180020130     mexOMPMask.obj
 0002:00003130       $unwind$?nrm2sq@?$Vector@_J@@QEBA_JXZ 0000000180020130     mexOMPMask.obj
 0002:00003130       $unwind$?nrm2sq@?$SpVector@N@@QEBANXZ 0000000180020130     mexOMPMask.obj
 0002:00003130       $unwind$??$mexCheckType@_N@@YA_NPEBUmxArray_tag@@@Z 0000000180020130     mexOMPMask.obj
 0002:00003130       $unwind$?nrm2sq@?$SpVector@M@@QEBAMXZ 0000000180020130     mexOMPMask.obj
 0002:00003130       $unwind$?clear@?$Vector@_J@@QEAAXXZ 0000000180020130     mexOMPMask.obj
 0002:00003130       $unwind$?clear@?$Matrix@M@@QEAAXXZ 0000000180020130     mexOMPMask.obj
 0002:00003130       $unwind$?clear@?$Vector@N@@QEAAXXZ 0000000180020130     mexOMPMask.obj
 0002:00003130       $unwind$??$mexCheckType@N@@YA_NPEBUmxArray_tag@@@Z 0000000180020130     mexOMPMask.obj
 0002:00003130       $unwind$??$mexCheckType@H@@YA_NPEBUmxArray_tag@@@Z 0000000180020130     mexOMPMask.obj
 0002:00003130       $unwind$?clear@?$Matrix@_N@@QEAAXXZ 0000000180020130     mexOMPMask.obj
 0002:00003130       $unwind$?clear@?$Vector@M@@QEAAXXZ 0000000180020130     mexOMPMask.obj
 0002:00003130       $unwind$?clear@?$Vector@H@@QEAAXXZ 0000000180020130     mexOMPMask.obj
 0002:00003130       $unwind$?nrm2sq@?$Vector@M@@QEBAMXZ 0000000180020130     mexOMPMask.obj
 0002:00003130       $unwind$?clear@?$SpVector@_J@@QEAAXXZ 0000000180020130     mexOMPMask.obj
 0002:00003130       $unwind$??$mexCheckType@M@@YA_NPEBUmxArray_tag@@@Z 0000000180020130     mexOMPMask.obj
 0002:00003138       $unwind$?add@?$Vector@M@@QEAAXAEBV1@M@Z 0000000180020138     mexOMPMask.obj
 0002:00003138       $unwind$?add@?$Vector@N@@QEAAXAEBV1@N@Z 0000000180020138     mexOMPMask.obj
 0002:00003140       $unwind$??$_Allocate@D@std@@YAPEAD_KPEAD@Z 0000000180020140     mexOMPMask.obj
 0002:00003140       $unwind$??0?$Vector@N@@QEAA@_J@Z 0000000180020140     mexOMPMask.obj
 0002:00003140       $unwind$?dot@?$Matrix@_N@@UEBA_NAEBV1@@Z 0000000180020140     mexOMPMask.obj
 0002:00003140       $unwind$?print@?$Matrix@_N@@UEBAXAEBV?$basic_string@DU?$char_traits@D@std@@V?$allocator@D@2@@std@@@Z 0000000180020140     mexOMPMask.obj
 0002:00003140       $unwind$?dot@?$Vector@M@@QEBAMAEBV1@@Z 0000000180020140     mexOMPMask.obj
 0002:00003140       $unwind$?resize@?$Vector@M@@QEAAX_J@Z 0000000180020140     mexOMPMask.obj
 0002:00003140       $unwind$?resize@?$Vector@N@@QEAAX_J@Z 0000000180020140     mexOMPMask.obj
 0002:00003140       $unwind$??8error_condition@std@@QEBA_NAEBV01@@Z 0000000180020140     mexOMPMask.obj
 0002:00003140       $unwind$?print@?$Matrix@N@@UEBAXAEBV?$basic_string@DU?$char_traits@D@std@@V?$allocator@D@2@@std@@@Z 0000000180020140     mexOMPMask.obj
 0002:00003140       $unwind$?_Eos@?$basic_string@DU?$char_traits@D@std@@V?$allocator@D@2@@std@@QEAAX_K@Z 0000000180020140     mexOMPMask.obj
 0002:00003140       $unwind$?resize@?$Vector@_J@@QEAAX_J@Z 0000000180020140     mexOMPMask.obj
 0002:00003140       $unwind$??0?$Vector@_J@@QEAA@_J@Z 0000000180020140     mexOMPMask.obj
 0002:00003140       $unwind$?dot@?$Matrix@_J@@UEBA_JAEBV1@@Z 0000000180020140     mexOMPMask.obj
 0002:00003140       $unwind$?dot@?$Matrix@M@@UEBAMAEBV1@@Z 0000000180020140     mexOMPMask.obj
 0002:00003140       $unwind$?dot@?$Vector@N@@QEBANAEBV1@@Z 0000000180020140     mexOMPMask.obj
 0002:00003140       $unwind$?dot@?$SpVector@M@@QEBAMAEBV1@@Z 0000000180020140     mexOMPMask.obj
 0002:00003140       $unwind$??0?$Vector@M@@QEAA@_J@Z 0000000180020140     mexOMPMask.obj
 0002:00003140       $unwind$??0?$Vector@_N@@QEAA@_J@Z 0000000180020140     mexOMPMask.obj
 0002:00003140       $unwind$??9?$_List_const_iterator@V?$_List_val@U?$_List_simple_types@_J@std@@@std@@@std@@QEBA_NAEBV01@@Z 0000000180020140     mexOMPMask.obj
 0002:00003140       $unwind$?print@?$Matrix@_J@@UEBAXAEBV?$basic_string@DU?$char_traits@D@std@@V?$allocator@D@2@@std@@@Z 0000000180020140     mexOMPMask.obj
 0002:00003140       $unwind$?dot@?$SpVector@N@@QEBANAEBV1@@Z 0000000180020140     mexOMPMask.obj
 0002:00003140       $unwind$?print@?$Matrix@M@@UEBAXAEBV?$basic_string@DU?$char_traits@D@std@@V?$allocator@D@2@@std@@@Z 0000000180020140     mexOMPMask.obj
 0002:00003140       $unwind$??0?$basic_string@DU?$char_traits@D@std@@V?$allocator@D@2@@std@@QEAA@PEBD@Z 0000000180020140     mexOMPMask.obj
 0002:00003140       $unwind$?dot@?$Matrix@N@@UEBANAEBV1@@Z 0000000180020140     mexOMPMask.obj
 0002:00003140       $unwind$?resize@?$Vector@_N@@QEAAX_J@Z 0000000180020140     mexOMPMask.obj
 0002:00003148       $unwind$?fillSymmetric@?$Matrix@_J@@QEAAXXZ 0000000180020148     mexOMPMask.obj
 0002:00003148       $unwind$?alltrue@?$Vector@_N@@QEBA_NXZ 0000000180020148     mexOMPMask.obj
 0002:00003148       $unwind$??Bsentry@?$basic_ostream@DU?$char_traits@D@std@@@std@@QEBAPEQ?$_Bool_struct@V?$basic_ostream@DU?$char_traits@D@std@@@std@@@2@HXZ 0000000180020148     mexOMPMask.obj
 0002:00003148       $unwind$?allfalse@?$Vector@_N@@QEBA_NXZ 0000000180020148     mexOMPMask.obj
 0002:00003148       $unwind$?fillSymmetric@?$Matrix@N@@QEAAXXZ 0000000180020148     mexOMPMask.obj
 0002:00003148       $unwind$?fillSymmetric@?$Matrix@_N@@QEAAXXZ 0000000180020148     mexOMPMask.obj
 0002:00003148       $unwind$?fillSymmetric@?$Matrix@M@@QEAAXXZ 0000000180020148     mexOMPMask.obj
 0002:00003150       $unwind$?dot@?$Vector@N@@QEBANAEBV?$SpVector@N@@@Z 0000000180020150     mexOMPMask.obj
 0002:00003150       $unwind$?print@?$SpMatrix@M@@UEBAXAEBV?$basic_string@DU?$char_traits@D@std@@V?$allocator@D@2@@std@@@Z 0000000180020150     mexOMPMask.obj
 0002:00003150       $unwind$?print@?$SpMatrix@N@@UEBAXAEBV?$basic_string@DU?$char_traits@D@std@@V?$allocator@D@2@@std@@@Z 0000000180020150     mexOMPMask.obj
 0002:00003150       $unwind$?diag@?$Matrix@_J@@UEBAXAEAV?$Vector@_J@@@Z 0000000180020150     mexOMPMask.obj
 0002:00003150       $unwind$??0_Sentry_base@?$basic_ostream@DU?$char_traits@D@std@@@std@@QEAA@AEAV12@@Z 0000000180020150     mexOMPMask.obj
 0002:00003150       $unwind$?toFull@?$SpMatrix@N@@QEBAXAEAV?$Matrix@N@@@Z 0000000180020150     mexOMPMask.obj
 0002:00003150       $unwind$?dot@?$Vector@_N@@QEBA_NAEBV?$SpVector@_N@@@Z 0000000180020150     mexOMPMask.obj
 0002:00003150       $unwind$?toFull@?$SpMatrix@M@@QEBAXAEAV?$Matrix@M@@@Z 0000000180020150     mexOMPMask.obj
 0002:00003150       $unwind$?dot@?$Vector@M@@QEBAMAEBV?$SpVector@M@@@Z 0000000180020150     mexOMPMask.obj
 0002:00003150       $unwind$?diag@?$Matrix@M@@UEBAXAEAV?$Vector@M@@@Z 0000000180020150     mexOMPMask.obj
 0002:00003150       $unwind$?diag@?$Matrix@N@@UEBAXAEAV?$Vector@N@@@Z 0000000180020150     mexOMPMask.obj
 0002:00003150       $unwind$?diag@?$Matrix@_N@@UEBAXAEAV?$Vector@_N@@@Z 0000000180020150     mexOMPMask.obj
 0002:00003150       $unwind$?dot@?$Vector@_J@@QEBA_JAEBV?$SpVector@_J@@@Z 0000000180020150     mexOMPMask.obj
 0002:00003158       $unwind$??$?6U?$char_traits@D@std@@@std@@YAAEAV?$basic_ostream@DU?$char_traits@D@std@@@0@AEAV10@PEBD@Z 0000000180020158     mexOMPMask.obj
 0002:00003168       $stateUnwindMap$??$?6U?$char_traits@D@std@@@std@@YAAEAV?$basic_ostream@DU?$char_traits@D@std@@@0@AEAV10@PEBD@Z 0000000180020168     mexOMPMask.obj
 0002:00003180       $tryMap$??$?6U?$char_traits@D@std@@@std@@YAAEAV?$basic_ostream@DU?$char_traits@D@std@@@0@AEAV10@PEBD@Z 0000000180020180     mexOMPMask.obj
 0002:00003194       $handlerMap$0$??$?6U?$char_traits@D@std@@@std@@YAAEAV?$basic_ostream@DU?$char_traits@D@std@@@0@AEAV10@PEBD@Z 0000000180020194     mexOMPMask.obj
 0002:000031a8       $ip2state$??$?6U?$char_traits@D@std@@@std@@YAAEAV?$basic_ostream@DU?$char_traits@D@std@@@0@AEAV10@PEBD@Z 00000001800201a8     mexOMPMask.obj
 0002:000031e8       $unwind$?catch$0@?0???$?6U?$char_traits@D@std@@@std@@YAAEAV?$basic_ostream@DU?$char_traits@D@std@@@0@AEAV10@PEBD@Z@4HA 00000001800201e8     mexOMPMask.obj
 0002:000031f8       $unwind$??$createMatrix@M@@YAPEAUmxArray_tag@@HH@Z 00000001800201f8     mexOMPMask.obj
 0002:000031f8       $unwind$??$createMatrix@N@@YAPEAUmxArray_tag@@HH@Z 00000001800201f8     mexOMPMask.obj
 0002:00003200       $unwind$??$callFunction@N@@YAXQEAPEAUmxArray_tag@@QEAPEBU0@H@Z 0000000180020200     mexOMPMask.obj
 0002:00003210       $stateUnwindMap$??$callFunction@N@@YAXQEAPEAUmxArray_tag@@QEAPEBU0@H@Z 0000000180020210     mexOMPMask.obj
 0002:00003238       $ip2state$??$callFunction@N@@YAXQEAPEAUmxArray_tag@@QEAPEBU0@H@Z 0000000180020238     mexOMPMask.obj
 0002:00003290       $unwind$??$callFunction@M@@YAXQEAPEAUmxArray_tag@@QEAPEBU0@H@Z 0000000180020290     mexOMPMask.obj
 0002:000032a0       $stateUnwindMap$??$callFunction@M@@YAXQEAPEAUmxArray_tag@@QEAPEBU0@H@Z 00000001800202a0     mexOMPMask.obj
 0002:000032c8       $ip2state$??$callFunction@M@@YAXQEAPEAUmxArray_tag@@QEAPEBU0@H@Z 00000001800202c8     mexOMPMask.obj
 0002:00003320       $unwind$?clear@?$SpMatrix@N@@QEAAXXZ 0000000180020320     mexOMPMask.obj
 0002:00003320       $unwind$?max_size@?$basic_string@DU?$char_traits@D@std@@V?$allocator@D@2@@std@@QEBA_KXZ 0000000180020320     mexOMPMask.obj
 0002:00003320       $unwind$??1_Sentry_base@?$basic_ostream@DU?$char_traits@D@std@@@std@@QEAA@XZ 0000000180020320     mexOMPMask.obj
 0002:00003320       $unwind$?clear@?$SpMatrix@M@@QEAAXXZ 0000000180020320     mexOMPMask.obj
 0002:00003328       $unwind$??0sentry@?$basic_ostream@DU?$char_traits@D@std@@@std@@QEAA@AEAV12@@Z 0000000180020328     mexOMPMask.obj
 0002:00003338       $stateUnwindMap$??0sentry@?$basic_ostream@DU?$char_traits@D@std@@@std@@QEAA@AEAV12@@Z 0000000180020338     mexOMPMask.obj
 0002:00003340       $ip2state$??0sentry@?$basic_ostream@DU?$char_traits@D@std@@@std@@QEAA@AEAV12@@Z 0000000180020340     mexOMPMask.obj
 0002:00003358       $unwind$DllMain            0000000180020358     mexOMPMask.obj
 0002:00003358       $unwind$??__E?_System_object@?$_Error_objects@H@std@@2V_System_error_category@2@A@@YAXXZ 0000000180020358     mexOMPMask.obj
 0002:00003358       $unwind$??__E?_Iostream_object@?$_Error_objects@H@std@@2V_Iostream_error_category@2@A@@YAXXZ 0000000180020358     mexOMPMask.obj
 0002:00003358       $unwind$??__F?_Generic_object@?$_Error_objects@H@std@@2V_Generic_error_category@2@A@@YAXXZ 0000000180020358     mexOMPMask.obj
 0002:00003358       $unwind$atexit             0000000180020358     mexOMPMask.obj
 0002:00003358       $unwind$??__E?id@?$num_put@DV?$back_insert_iterator@V?$basic_string@DU?$char_traits@D@std@@V?$allocator@D@2@@std@@@std@@@std@@2V0locale@2@A@@YAXXZ 0000000180020358     mexOMPMask.obj
 0002:00003358       $unwind$??__E?id@?$num_put@_WV?$back_insert_iterator@V?$basic_string@_WU?$char_traits@_W@std@@V?$allocator@_W@2@@std@@@std@@@std@@2V0locale@2@A@@YAXXZ 0000000180020358     mexOMPMask.obj
 0002:00003358       $unwind$??__F?_Iostream_object@?$_Error_objects@H@std@@2V_Iostream_error_category@2@A@@YAXXZ 0000000180020358     mexOMPMask.obj
 0002:00003358       $unwind$??__F?_System_object@?$_Error_objects@H@std@@2V_System_error_category@2@A@@YAXXZ 0000000180020358     mexOMPMask.obj
 0002:00003358       $unwind$??__E?_Generic_object@?$_Error_objects@H@std@@2V_Generic_error_category@2@A@@YAXXZ 0000000180020358     mexOMPMask.obj
 0002:00003360       $unwind$??0?$Matrix@M@@QEAA@PEAM_J1@Z 0000000180020360     mexOMPMask.obj
 0002:00003360       $unwind$??0?$Matrix@N@@QEAA@PEAN_J1@Z 0000000180020360     mexOMPMask.obj
 0002:00003360       $unwind$??$cblas_dot@_J@@YA_J_JPEA_J010@Z 0000000180020360     mexOMPMask.obj
 0002:00003360       $unwind$??0?$Matrix@_N@@QEAA@PEA_N_J1@Z 0000000180020360     mexOMPMask.obj
 0002:00003368       $unwind$??0?$Matrix@N@@QEAA@_J0@Z 0000000180020368     mexOMPMask.obj
 0002:00003378       $stateUnwindMap$??0?$Matrix@N@@QEAA@_J0@Z 0000000180020378     mexOMPMask.obj
 0002:00003390       $ip2state$??0?$Matrix@N@@QEAA@_J0@Z 0000000180020390     mexOMPMask.obj
 0002:000033b8       $unwind$??1?$Matrix@N@@UEAA@XZ 00000001800203b8     mexOMPMask.obj
 0002:000033c8       $stateUnwindMap$??1?$Matrix@N@@UEAA@XZ 00000001800203c8     mexOMPMask.obj
 0002:000033e0       $ip2state$??1?$Matrix@N@@UEAA@XZ 00000001800203e0     mexOMPMask.obj
 0002:00003408       $unwind$?set@?$Vector@N@@QEAAXN@Z 0000000180020408     mexOMPMask.obj
 0002:00003408       $unwind$?addDiag@?$Matrix@M@@QEAAXM@Z 0000000180020408     mexOMPMask.obj
 0002:00003408       $unwind$?addDiag@?$Matrix@N@@QEAAXN@Z 0000000180020408     mexOMPMask.obj
 0002:00003408       $unwind$?set@?$Vector@M@@QEAAXM@Z 0000000180020408     mexOMPMask.obj
 0002:00003410       $unwind$?multTrans@?$Matrix@N@@QEBAXAEBV?$SpVector@N@@AEAV?$Vector@N@@NN@Z 0000000180020410     mexOMPMask.obj
 0002:00003420       $stateUnwindMap$?multTrans@?$Matrix@N@@QEBAXAEBV?$SpVector@N@@AEAV?$Vector@N@@NN@Z 0000000180020420     mexOMPMask.obj
 0002:00003420       $stateUnwindMap$?copyCol@?$ProdMatrix@N@@UEBAX_JAEAV?$Vector@N@@@Z 0000000180020420     mexOMPMask.obj
 0002:00003420       $stateUnwindMap$?rank1Update@?$Matrix@N@@QEAAXAEBV?$Vector@N@@AEBV?$SpVector@N@@N@Z 0000000180020420     mexOMPMask.obj
 0002:00003428       $ip2state$?multTrans@?$Matrix@N@@QEBAXAEBV?$SpVector@N@@AEAV?$Vector@N@@NN@Z 0000000180020428     mexOMPMask.obj
 0002:00003440       $unwind$?mult@?$Matrix@N@@UEBAXAEBV?$SpMatrix@N@@AEAV1@_N2NN@Z 0000000180020440     mexOMPMask.obj
 0002:00003450       $stateUnwindMap$?mult@?$Matrix@N@@UEBAXAEBV?$SpMatrix@N@@AEAV1@_N2NN@Z 0000000180020450     mexOMPMask.obj
 0002:00003490       $ip2state$?mult@?$Matrix@N@@UEBAXAEBV?$SpMatrix@N@@AEAV1@_N2NN@Z 0000000180020490     mexOMPMask.obj
 0002:00003518       $unwind$?norm_2sq_cols@?$Matrix@N@@UEBAXAEAV?$Vector@N@@@Z 0000000180020518     mexOMPMask.obj
 0002:00003528       $stateUnwindMap$?norm_2sq_cols@?$Matrix@N@@UEBAXAEAV?$Vector@N@@@Z 0000000180020528     mexOMPMask.obj
 0002:00003530       $ip2state$?norm_2sq_cols@?$Matrix@N@@UEBAXAEAV?$Vector@N@@@Z 0000000180020530     mexOMPMask.obj
 0002:00003548       $unwind$?rank1Update@?$Matrix@N@@QEAAXAEBV?$Vector@N@@AEBV?$SpVector@N@@N@Z 0000000180020548     mexOMPMask.obj
 0002:00003558       $ip2state$?rank1Update@?$Matrix@N@@QEAAXAEBV?$Vector@N@@AEBV?$SpVector@N@@N@Z 0000000180020558     mexOMPMask.obj
 0002:00003570       $unwind$?copyMask@?$Matrix@N@@QEBAXAEAV1@AEAV?$Vector@_N@@@Z 0000000180020570     mexOMPMask.obj
 0002:00003570       $unwind$?copyMask@?$Matrix@M@@QEBAXAEAV1@AEAV?$Vector@_N@@@Z 0000000180020570     mexOMPMask.obj
 0002:00003578       $unwind$??1?$Matrix@_N@@UEAA@XZ 0000000180020578     mexOMPMask.obj
 0002:00003588       $stateUnwindMap$??1?$Matrix@_N@@UEAA@XZ 0000000180020588     mexOMPMask.obj
 0002:000035a0       $ip2state$??1?$Matrix@_N@@UEAA@XZ 00000001800205a0     mexOMPMask.obj
 0002:000035c8       $unwind$?mult@?$Matrix@_N@@UEBAXAEBV?$Vector@_N@@AEAV2@_N2@Z 00000001800205c8     mexOMPMask.obj
 0002:000035c8       $unwind$?multTrans@?$Matrix@_N@@UEBAXAEBV?$Vector@_N@@AEAV2@_N2@Z 00000001800205c8     mexOMPMask.obj
 0002:000035c8       $unwind$?getGroup@?$Matrix@M@@UEBAXAEAV1@AEBV?$vector@V?$list@_JV?$allocator@_J@std@@@std@@V?$allocator@V?$list@_JV?$allocator@_J@std@@@std@@@2@@std@@_J@Z 00000001800205c8     mexOMPMask.obj
 0002:000035c8       $unwind$?multTrans@?$Matrix@_J@@UEBAXAEBV?$Vector@_J@@AEAV2@_J2@Z 00000001800205c8     mexOMPMask.obj
 0002:000035c8       $unwind$?mult@?$Matrix@_J@@UEBAXAEBV?$Vector@_J@@AEAV2@_J2@Z 00000001800205c8     mexOMPMask.obj
 0002:000035c8       $unwind$?getGroup@?$Matrix@_N@@UEBAXAEAV1@AEBV?$vector@V?$list@_JV?$allocator@_J@std@@@std@@V?$allocator@V?$list@_JV?$allocator@_J@std@@@std@@@2@@std@@_J@Z 00000001800205c8     mexOMPMask.obj
 0002:000035c8       $unwind$?getGroup@?$Matrix@_J@@UEBAXAEAV1@AEBV?$vector@V?$list@_JV?$allocator@_J@std@@@std@@V?$allocator@V?$list@_JV?$allocator@_J@std@@@std@@@2@@std@@_J@Z 00000001800205c8     mexOMPMask.obj
 0002:000035c8       $unwind$?getGroup@?$Matrix@N@@UEBAXAEAV1@AEBV?$vector@V?$list@_JV?$allocator@_J@std@@@std@@V?$allocator@V?$list@_JV?$allocator@_J@std@@@std@@@2@@std@@_J@Z 00000001800205c8     mexOMPMask.obj
 0002:000035d0       $unwind$?multTrans@?$Matrix@_N@@QEBAXAEBV?$SpVector@_N@@AEAV?$Vector@_N@@_N2@Z 00000001800205d0     mexOMPMask.obj
 0002:000035e0       $ip2state$?multTrans@?$Matrix@_N@@QEBAXAEBV?$SpVector@_N@@AEAV?$Vector@_N@@_N2@Z 00000001800205e0     mexOMPMask.obj
 0002:000035f8       $unwind$?mult@?$Matrix@_N@@UEBAXAEBV?$SpMatrix@_N@@AEAV1@_N222@Z 00000001800205f8     mexOMPMask.obj
 0002:00003608       $stateUnwindMap$?mult@?$Matrix@_N@@UEBAXAEBV?$SpMatrix@_N@@AEAV1@_N222@Z 0000000180020608     mexOMPMask.obj
 0002:00003648       $ip2state$?mult@?$Matrix@_N@@UEBAXAEBV?$SpMatrix@_N@@AEAV1@_N222@Z 0000000180020648     mexOMPMask.obj
 0002:000036d0       $unwind$?norm_2sq_cols@?$Matrix@_N@@UEBAXAEAV?$Vector@_N@@@Z 00000001800206d0     mexOMPMask.obj
 0002:000036e0       $stateUnwindMap$?norm_2sq_cols@?$Matrix@_N@@UEBAXAEAV?$Vector@_N@@@Z 00000001800206e0     mexOMPMask.obj
 0002:000036e8       $ip2state$?norm_2sq_cols@?$Matrix@_N@@UEBAXAEAV?$Vector@_N@@@Z 00000001800206e8     mexOMPMask.obj
 0002:00003700       $unwind$?rank1Update@?$Matrix@_N@@QEAAXAEBV?$Vector@_N@@AEBV?$SpVector@_N@@_N@Z 0000000180020700     mexOMPMask.obj
 0002:00003710       $stateUnwindMap$?multTrans@?$Matrix@_N@@QEBAXAEBV?$SpVector@_N@@AEAV?$Vector@_N@@_N2@Z 0000000180020710     mexOMPMask.obj
 0002:00003710       $stateUnwindMap$?rank1Update@?$Matrix@_N@@QEAAXAEBV?$Vector@_N@@AEBV?$SpVector@_N@@_N@Z 0000000180020710     mexOMPMask.obj
 0002:00003718       $ip2state$?rank1Update@?$Matrix@_N@@QEAAXAEBV?$Vector@_N@@AEBV?$SpVector@_N@@_N@Z 0000000180020718     mexOMPMask.obj
 0002:00003730       $unwind$??1?$SpMatrix@N@@UEAA@XZ 0000000180020730     mexOMPMask.obj
 0002:00003740       $stateUnwindMap$??1?$SpMatrix@N@@UEAA@XZ 0000000180020740     mexOMPMask.obj
 0002:00003750       $ip2state$??1?$SpMatrix@N@@UEAA@XZ 0000000180020750     mexOMPMask.obj
 0002:00003770       $unwind$?getGroup@?$SpMatrix@N@@UEBAXAEAV?$Matrix@N@@AEBV?$vector@V?$list@_JV?$allocator@_J@std@@@std@@V?$allocator@V?$list@_JV?$allocator@_J@std@@@std@@@2@@std@@_J@Z 0000000180020770     mexOMPMask.obj
 0002:00003780       $stateUnwindMap$?getGroup@?$SpMatrix@N@@UEBAXAEAV?$Matrix@N@@AEBV?$vector@V?$list@_JV?$allocator@_J@std@@@std@@V?$allocator@V?$list@_JV?$allocator@_J@std@@@std@@@2@@std@@_J@Z 0000000180020780     mexOMPMask.obj
 0002:00003788       $ip2state$?getGroup@?$SpMatrix@N@@UEBAXAEAV?$Matrix@N@@AEBV?$vector@V?$list@_JV?$allocator@_J@std@@@std@@V?$allocator@V?$list@_JV?$allocator@_J@std@@@std@@@2@@std@@_J@Z 0000000180020788     mexOMPMask.obj
 0002:000037a0       $unwind$?XtX@?$SpMatrix@N@@UEBAXAEAV?$Matrix@N@@@Z 00000001800207a0     mexOMPMask.obj
 0002:000037b0       $stateUnwindMap$?XtX@?$SpMatrix@N@@UEBAXAEAV?$Matrix@N@@@Z 00000001800207b0     mexOMPMask.obj
 0002:000037c0       $ip2state$?XtX@?$SpMatrix@N@@UEBAXAEAV?$Matrix@N@@@Z 00000001800207c0     mexOMPMask.obj
 0002:000037e8       $unwind$?multTrans@?$SpMatrix@N@@QEBAXAEBV?$SpVector@N@@AEAV?$Vector@N@@NN@Z 00000001800207e8     mexOMPMask.obj
 0002:000037f8       $ip2state$?multTrans@?$SpMatrix@N@@QEBAXAEBV?$SpVector@N@@AEAV?$Vector@N@@NN@Z 00000001800207f8     mexOMPMask.obj
 0002:00003810       $unwind$?mult@?$SpMatrix@N@@UEBAXAEBV?$Matrix@N@@AEAV2@_N2NN@Z 0000000180020810     mexOMPMask.obj
 0002:00003820       $stateUnwindMap$?mult@?$SpMatrix@N@@UEBAXAEBV?$Matrix@N@@AEAV2@_N2NN@Z 0000000180020820     mexOMPMask.obj
 0002:00003860       $ip2state$?mult@?$SpMatrix@N@@UEBAXAEBV?$Matrix@N@@AEAV2@_N2NN@Z 0000000180020860     mexOMPMask.obj
 0002:000038e8       $unwind$?mult@?$SpMatrix@N@@UEBAXAEBV1@AEAV?$Matrix@N@@_N2NN@Z 00000001800208e8     mexOMPMask.obj
 0002:000038f8       $stateUnwindMap$?mult@?$SpMatrix@N@@UEBAXAEBV1@AEAV?$Matrix@N@@_N2NN@Z 00000001800208f8     mexOMPMask.obj
 0002:00003938       $ip2state$?mult@?$SpMatrix@N@@UEBAXAEBV1@AEAV?$Matrix@N@@_N2NN@Z 0000000180020938     mexOMPMask.obj
 0002:000039c0       $unwind$?convert@?$SpMatrix@M@@QEAAXAEBV?$Matrix@M@@AEBV?$Matrix@_J@@_J@Z 00000001800209c0     mexOMPMask.obj
 0002:000039c0       $unwind$?convert@?$SpMatrix@N@@QEAAXAEBV?$Matrix@N@@AEBV?$Matrix@_J@@_J@Z 00000001800209c0     mexOMPMask.obj
 0002:000039c8       $unwind$?norm_2sq_cols@?$SpMatrix@N@@UEBAXAEAV?$Vector@N@@@Z 00000001800209c8     mexOMPMask.obj
 0002:000039d8       $stateUnwindMap$?multTrans@?$SpMatrix@N@@QEBAXAEBV?$SpVector@N@@AEAV?$Vector@N@@NN@Z 00000001800209d8     mexOMPMask.obj
 0002:000039d8       $stateUnwindMap$?multTrans@?$SpMatrix@M@@QEBAXAEBV?$SpVector@M@@AEAV?$Vector@M@@MM@Z 00000001800209d8     mexOMPMask.obj
 0002:000039d8       $stateUnwindMap$?norm_2sq_cols@?$SpMatrix@N@@UEBAXAEAV?$Vector@N@@@Z 00000001800209d8     mexOMPMask.obj
 0002:000039d8       $stateUnwindMap$?norm_2sq_cols@?$SpMatrix@M@@UEBAXAEAV?$Vector@M@@@Z 00000001800209d8     mexOMPMask.obj
 0002:000039e0       $ip2state$?norm_2sq_cols@?$SpMatrix@N@@UEBAXAEAV?$Vector@N@@@Z 00000001800209e0     mexOMPMask.obj
 0002:000039f8       $unwind$??$omp_mask@N@@YAXAEBV?$Matrix@N@@0AEAV?$SpMatrix@N@@AEBV?$Matrix@_N@@PEBHPEBN4_N55HPEAV0@@Z 00000001800209f8     mexOMPMask.obj
 0002:00003a0c       $stateUnwindMap$??$omp_mask@N@@YAXAEBV?$Matrix@N@@0AEAV?$SpMatrix@N@@AEBV?$Matrix@_N@@PEBHPEBN4_N55HPEAV0@@Z 0000000180020a0c     mexOMPMask.obj
 0002:00003aa4       $ip2state$??$omp_mask@N@@YAXAEBV?$Matrix@N@@0AEAV?$SpMatrix@N@@AEBV?$Matrix@_N@@PEBHPEBN4_N55HPEAV0@@Z 0000000180020aa4     mexOMPMask.obj
 0002:00003c04       $unwind$??_G?$AbstractMatrix@N@@UEAAPEAXI@Z 0000000180020c04     mexOMPMask.obj
 0002:00003c04       $unwind$??_E?$Vector@N@@UEAAPEAXI@Z 0000000180020c04     mexOMPMask.obj
 0002:00003c04       $unwind$??_G?$SpMatrix@M@@UEAAPEAXI@Z 0000000180020c04     mexOMPMask.obj
 0002:00003c04       $unwind$?scal@?$Vector@_N@@QEAAX_N@Z 0000000180020c04     mexOMPMask.obj
 0002:00003c04       $unwind$?scal@?$Matrix@_N@@QEAAX_N@Z 0000000180020c04     mexOMPMask.obj
 0002:00003c04       $unwind$??_E?$Matrix@M@@UEAAPEAXI@Z 0000000180020c04     mexOMPMask.obj
 0002:00003c04       $unwind$??_G?$AbstractMatrixB@N@@UEAAPEAXI@Z 0000000180020c04     mexOMPMask.obj
 0002:00003c04       $unwind$??_G?$Data@N@@UEAAPEAXI@Z 0000000180020c04     mexOMPMask.obj
 0002:00003c04       $unwind$??_G?$Vector@_N@@UEAAPEAXI@Z 0000000180020c04     mexOMPMask.obj
 0002:00003c04       $unwind$??_G?$AbstractMatrixB@M@@UEAAPEAXI@Z 0000000180020c04     mexOMPMask.obj
 0002:00003c04       $unwind$??_E?$ProdMatrix@N@@UEAAPEAXI@Z 0000000180020c04     mexOMPMask.obj
 0002:00003c04       $unwind$??_Gerror_category@std@@UEAAPEAXI@Z 0000000180020c04     mexOMPMask.obj
 0002:00003c04       $unwind$??_E?$Vector@M@@UEAAPEAXI@Z 0000000180020c04     mexOMPMask.obj
 0002:00003c04       $unwind$??_G_System_error_category@std@@UEAAPEAXI@Z 0000000180020c04     mexOMPMask.obj
 0002:00003c04       $unwind$??_G?$SpMatrix@N@@UEAAPEAXI@Z 0000000180020c04     mexOMPMask.obj
 0002:00003c04       $unwind$??_G?$AbstractMatrix@M@@UEAAPEAXI@Z 0000000180020c04     mexOMPMask.obj
 0002:00003c04       $unwind$??_G?$Data@_J@@UEAAPEAXI@Z 0000000180020c04     mexOMPMask.obj
 0002:00003c04       $unwind$??_G?$Matrix@_N@@UEAAPEAXI@Z 0000000180020c04     mexOMPMask.obj
 0002:00003c04       $unwind$??_G?$Data@M@@UEAAPEAXI@Z 0000000180020c04     mexOMPMask.obj
 0002:00003c04       $unwind$??_G?$AbstractMatrixB@_J@@UEAAPEAXI@Z 0000000180020c04     mexOMPMask.obj
 0002:00003c04       $unwind$??_G_Generic_error_category@std@@UEAAPEAXI@Z 0000000180020c04     mexOMPMask.obj
 0002:00003c04       $unwind$??_G?$AbstractMatrixB@_N@@UEAAPEAXI@Z 0000000180020c04     mexOMPMask.obj
 0002:00003c04       $unwind$??_G?$AbstractMatrix@_N@@UEAAPEAXI@Z 0000000180020c04     mexOMPMask.obj
 0002:00003c04       $unwind$??_G?$Data@_N@@UEAAPEAXI@Z 0000000180020c04     mexOMPMask.obj
 0002:00003c04       $unwind$??_G?$Vector@H@@UEAAPEAXI@Z 0000000180020c04     mexOMPMask.obj
 0002:00003c04       $unwind$??_E?$Matrix@N@@UEAAPEAXI@Z 0000000180020c04     mexOMPMask.obj
 0002:00003c04       $unwind$??_G?$Vector@_J@@UEAAPEAXI@Z 0000000180020c04     mexOMPMask.obj
 0002:00003c04       $unwind$??_G?$Matrix@_J@@UEAAPEAXI@Z 0000000180020c04     mexOMPMask.obj
 0002:00003c04       $unwind$??_E?$ProdMatrix@M@@UEAAPEAXI@Z 0000000180020c04     mexOMPMask.obj
 0002:00003c04       $unwind$??_G_Iostream_error_category@std@@UEAAPEAXI@Z 0000000180020c04     mexOMPMask.obj
 0002:00003c04       $unwind$??_G?$AbstractMatrix@_J@@UEAAPEAXI@Z 0000000180020c04     mexOMPMask.obj
 0002:00003c0c       $unwind$??0?$Matrix@M@@QEAA@_J0@Z 0000000180020c0c     mexOMPMask.obj
 0002:00003c1c       $stateUnwindMap$??0?$Matrix@M@@QEAA@_J0@Z 0000000180020c1c     mexOMPMask.obj
 0002:00003c34       $ip2state$??0?$Matrix@M@@QEAA@_J0@Z 0000000180020c34     mexOMPMask.obj
 0002:00003c5c       $unwind$??1?$Matrix@M@@UEAA@XZ 0000000180020c5c     mexOMPMask.obj
 0002:00003c6c       $stateUnwindMap$??1?$Matrix@M@@UEAA@XZ 0000000180020c6c     mexOMPMask.obj
 0002:00003c84       $ip2state$??1?$Matrix@M@@UEAA@XZ 0000000180020c84     mexOMPMask.obj
 0002:00003cac       $unwind$?addDiag@?$ProdMatrix@M@@QEAAXM@Z 0000000180020cac     mexOMPMask.obj
 0002:00003cac       $unwind$?scal@?$Vector@M@@QEAAXM@Z 0000000180020cac     mexOMPMask.obj
 0002:00003cac       $unwind$?addDiag@?$ProdMatrix@N@@QEAAXN@Z 0000000180020cac     mexOMPMask.obj
 0002:00003cac       $unwind$?scal@?$Matrix@M@@QEAAXM@Z 0000000180020cac     mexOMPMask.obj
 0002:00003cac       $unwind$?scal@?$Vector@N@@QEAAXN@Z 0000000180020cac     mexOMPMask.obj
 0002:00003cac       $unwind$?scal@?$Matrix@N@@QEAAXN@Z 0000000180020cac     mexOMPMask.obj
 0002:00003cb4       $unwind$?multTrans@?$Matrix@M@@UEBAXAEBV?$Vector@M@@AEAV2@MM@Z 0000000180020cb4     mexOMPMask.obj
 0002:00003cb4       $unwind$?mult@?$Matrix@M@@UEBAXAEBV?$Vector@M@@AEAV2@MM@Z 0000000180020cb4     mexOMPMask.obj
 0002:00003cb4       $unwind$?multTrans@?$Matrix@N@@UEBAXAEBV?$Vector@N@@AEAV2@NN@Z 0000000180020cb4     mexOMPMask.obj
 0002:00003cb4       $unwind$?mult@?$Matrix@N@@UEBAXAEBV?$Vector@N@@AEAV2@NN@Z 0000000180020cb4     mexOMPMask.obj
 0002:00003cbc       $unwind$?multTrans@?$Matrix@M@@QEBAXAEBV?$SpVector@M@@AEAV?$Vector@M@@MM@Z 0000000180020cbc     mexOMPMask.obj
 0002:00003ccc       $stateUnwindMap$?rank1Update@?$Matrix@M@@QEAAXAEBV?$Vector@M@@AEBV?$SpVector@M@@M@Z 0000000180020ccc     mexOMPMask.obj
 0002:00003ccc       $stateUnwindMap$?copyCol@?$ProdMatrix@M@@UEBAX_JAEAV?$Vector@M@@@Z 0000000180020ccc     mexOMPMask.obj
 0002:00003ccc       $stateUnwindMap$?multTrans@?$Matrix@M@@QEBAXAEBV?$SpVector@M@@AEAV?$Vector@M@@MM@Z 0000000180020ccc     mexOMPMask.obj
 0002:00003cd4       $ip2state$?multTrans@?$Matrix@M@@QEBAXAEBV?$SpVector@M@@AEAV?$Vector@M@@MM@Z 0000000180020cd4     mexOMPMask.obj
 0002:00003cec       $unwind$?mult@?$Matrix@M@@UEBAXAEBV?$SpVector@M@@AEAV?$Vector@M@@MM@Z 0000000180020cec     mexOMPMask.obj
 0002:00003cec       $unwind$?rank1Update@?$Matrix@M@@QEAAXAEBV?$SpVector@M@@0M@Z 0000000180020cec     mexOMPMask.obj
 0002:00003cec       $unwind$?mult@?$Matrix@N@@UEBAXAEBV?$SpVector@N@@AEAV?$Vector@N@@NN@Z 0000000180020cec     mexOMPMask.obj
 0002:00003cec       $unwind$?rank1Update@?$Matrix@N@@QEAAXAEBV?$SpVector@N@@0N@Z 0000000180020cec     mexOMPMask.obj
 0002:00003cf4       $unwind$?mult@?$Matrix@M@@UEBAXAEBV?$SpMatrix@M@@AEAV1@_N2MM@Z 0000000180020cf4     mexOMPMask.obj
 0002:00003d04       $stateUnwindMap$?mult@?$Matrix@M@@UEBAXAEBV?$SpMatrix@M@@AEAV1@_N2MM@Z 0000000180020d04     mexOMPMask.obj
 0002:00003d44       $ip2state$?mult@?$Matrix@M@@UEBAXAEBV?$SpMatrix@M@@AEAV1@_N2MM@Z 0000000180020d44     mexOMPMask.obj
 0002:00003dcc       $unwind$?norm_2sq_cols@?$Matrix@M@@UEBAXAEAV?$Vector@M@@@Z 0000000180020dcc     mexOMPMask.obj
 0002:00003ddc       $stateUnwindMap$?norm_2sq_cols@?$Matrix@M@@UEBAXAEAV?$Vector@M@@@Z 0000000180020ddc     mexOMPMask.obj
 0002:00003de4       $ip2state$?norm_2sq_cols@?$Matrix@M@@UEBAXAEAV?$Vector@M@@@Z 0000000180020de4     mexOMPMask.obj
 0002:00003dfc       $unwind$?rank1Update@?$Matrix@M@@QEAAXAEBV?$Vector@M@@AEBV?$SpVector@M@@M@Z 0000000180020dfc     mexOMPMask.obj
 0002:00003e0c       $ip2state$?rank1Update@?$Matrix@M@@QEAAXAEBV?$Vector@M@@AEBV?$SpVector@M@@M@Z 0000000180020e0c     mexOMPMask.obj
 0002:00003e24       $unwind$?multTrans@?$SpMatrix@N@@UEBAXAEBV?$Vector@N@@AEAV2@NN@Z 0000000180020e24     mexOMPMask.obj
 0002:00003e24       $unwind$?mult@?$SpMatrix@N@@UEBAXAEBV?$SpVector@N@@AEAV?$Vector@N@@NN@Z 0000000180020e24     mexOMPMask.obj
 0002:00003e24       $unwind$?mult@?$SpMatrix@N@@UEBAXAEBV?$Vector@N@@AEAV2@NN@Z 0000000180020e24     mexOMPMask.obj
 0002:00003e24       $unwind$?multTrans@?$SpMatrix@M@@UEBAXAEBV?$Vector@M@@AEAV2@MM@Z 0000000180020e24     mexOMPMask.obj
 0002:00003e24       $unwind$?addRow@?$Matrix@M@@QEAAX_JAEBV?$Vector@M@@M@Z 0000000180020e24     mexOMPMask.obj
 0002:00003e24       $unwind$?addRow@?$Matrix@N@@QEAAX_JAEBV?$Vector@N@@N@Z 0000000180020e24     mexOMPMask.obj
 0002:00003e24       $unwind$?mult@?$SpMatrix@M@@UEBAXAEBV?$SpVector@M@@AEAV?$Vector@M@@MM@Z 0000000180020e24     mexOMPMask.obj
 0002:00003e24       $unwind$?mult@?$SpMatrix@M@@UEBAXAEBV?$Vector@M@@AEAV2@MM@Z 0000000180020e24     mexOMPMask.obj
 0002:00003e2c       $unwind$??1?$SpMatrix@M@@UEAA@XZ 0000000180020e2c     mexOMPMask.obj
 0002:00003e3c       $stateUnwindMap$??1?$SpMatrix@M@@UEAA@XZ 0000000180020e3c     mexOMPMask.obj
 0002:00003e4c       $ip2state$??1?$SpMatrix@M@@UEAA@XZ 0000000180020e4c     mexOMPMask.obj
 0002:00003e6c       $unwind$?refCol@?$Matrix@M@@QEBAX_JAEAV?$Vector@M@@@Z 0000000180020e6c     mexOMPMask.obj
 0002:00003e6c       $unwind$??0?$_List_unchecked_const_iterator@V?$_List_val@U?$_List_simple_types@_J@std@@@std@@U_Iterator_base0@2@@std@@QEAA@PEAU?$_List_node@_JPEAX@1@PEBV?$_List_val@U?$_List_simple_types@_J@std@@@1@@Z 0000000180020e6c     mexOMPMask.obj
 0002:00003e6c       $unwind$?refCol@?$SpMatrix@_N@@QEBAX_JAEAV?$SpVector@_N@@@Z 0000000180020e6c     mexOMPMask.obj
 0002:00003e6c       $unwind$??$construct@PEADAEAPEAD@?$allocator_traits@V?$allocator@D@std@@@std@@SAXAEAV?$allocator@D@1@PEAPEADAEAPEAD@Z 0000000180020e6c     mexOMPMask.obj
 0002:00003e6c       $unwind$?deallocate@?$_Wrap_alloc@V?$allocator@D@std@@@std@@QEAAXPEAD_K@Z 0000000180020e6c     mexOMPMask.obj
 0002:00003e6c       $unwind$??$construct@PEADAEAPEAD@?$_Wrap_alloc@V?$allocator@D@std@@@std@@QEAAXPEAPEADAEAPEAD@Z 0000000180020e6c     mexOMPMask.obj
 0002:00003e6c       $unwind$?refCol@?$SpMatrix@N@@QEBAX_JAEAV?$SpVector@N@@@Z 0000000180020e6c     mexOMPMask.obj
 0002:00003e6c       $unwind$?refCol@?$Matrix@_J@@QEBAX_JAEAV?$Vector@_J@@@Z 0000000180020e6c     mexOMPMask.obj
 0002:00003e6c       $unwind$?deallocate@?$allocator@D@std@@QEAAXPEAD_K@Z 0000000180020e6c     mexOMPMask.obj
 0002:00003e6c       $unwind$?refCol@?$Matrix@_N@@QEBAX_JAEAV?$Vector@_N@@@Z 0000000180020e6c     mexOMPMask.obj
 0002:00003e6c       $unwind$?refCol@?$SpMatrix@_J@@QEBAX_JAEAV?$SpVector@_J@@@Z 0000000180020e6c     mexOMPMask.obj
 0002:00003e6c       $unwind$?default_error_condition@error_category@std@@UEBA?AVerror_condition@2@H@Z 0000000180020e6c     mexOMPMask.obj
 0002:00003e6c       $unwind$??$cblas_iamax@N@@YA_J_JPEAN0@Z 0000000180020e6c     mexOMPMask.obj
 0002:00003e6c       $unwind$?refCol@?$Matrix@N@@QEBAX_JAEAV?$Vector@N@@@Z 0000000180020e6c     mexOMPMask.obj
 0002:00003e6c       $unwind$??$cblas_iamax@M@@YA_J_JPEAM0@Z 0000000180020e6c     mexOMPMask.obj
 0002:00003e6c       $unwind$?assign@?$basic_string@DU?$char_traits@D@std@@V?$allocator@D@2@@std@@QEAAAEAV12@PEBD_K@Z 0000000180020e6c     mexOMPMask.obj
 0002:00003e6c       $unwind$?refCol@?$SpMatrix@M@@QEBAX_JAEAV?$SpVector@M@@@Z 0000000180020e6c     mexOMPMask.obj
 0002:00003e6c       $unwind$??0?$_List_const_iterator@V?$_List_val@U?$_List_simple_types@_J@std@@@std@@@std@@QEAA@PEAU?$_List_node@_JPEAX@1@PEBV?$_List_val@U?$_List_simple_types@_J@std@@@1@@Z 0000000180020e6c     mexOMPMask.obj
 0002:00003e6c       $unwind$?default_error_condition@_System_error_category@std@@UEBA?AVerror_condition@2@H@Z 0000000180020e6c     mexOMPMask.obj
 0002:00003e74       $unwind$?getGroup@?$SpMatrix@M@@UEBAXAEAV?$Matrix@M@@AEBV?$vector@V?$list@_JV?$allocator@_J@std@@@std@@V?$allocator@V?$list@_JV?$allocator@_J@std@@@std@@@2@@std@@_J@Z 0000000180020e74     mexOMPMask.obj
 0002:00003e84       $stateUnwindMap$?getGroup@?$SpMatrix@M@@UEBAXAEAV?$Matrix@M@@AEBV?$vector@V?$list@_JV?$allocator@_J@std@@@std@@V?$allocator@V?$list@_JV?$allocator@_J@std@@@std@@@2@@std@@_J@Z 0000000180020e84     mexOMPMask.obj
 0002:00003e8c       $ip2state$?getGroup@?$SpMatrix@M@@UEBAXAEAV?$Matrix@M@@AEBV?$vector@V?$list@_JV?$allocator@_J@std@@@std@@V?$allocator@V?$list@_JV?$allocator@_J@std@@@std@@@2@@std@@_J@Z 0000000180020e8c     mexOMPMask.obj
 0002:00003ea4       $unwind$?XtX@?$SpMatrix@M@@UEBAXAEAV?$Matrix@M@@@Z 0000000180020ea4     mexOMPMask.obj
 0002:00003eb4       $stateUnwindMap$?XtX@?$SpMatrix@M@@UEBAXAEAV?$Matrix@M@@@Z 0000000180020eb4     mexOMPMask.obj
 0002:00003ec4       $ip2state$?XtX@?$SpMatrix@M@@UEBAXAEAV?$Matrix@M@@@Z 0000000180020ec4     mexOMPMask.obj
 0002:00003eec       $unwind$?multTrans@?$SpMatrix@M@@QEBAXAEBV?$SpVector@M@@AEAV?$Vector@M@@MM@Z 0000000180020eec     mexOMPMask.obj
 0002:00003efc       $ip2state$?multTrans@?$SpMatrix@M@@QEBAXAEBV?$SpVector@M@@AEAV?$Vector@M@@MM@Z 0000000180020efc     mexOMPMask.obj
 0002:00003f14       $unwind$?mult@?$SpMatrix@M@@UEBAXAEBV?$Matrix@M@@AEAV2@_N2MM@Z 0000000180020f14     mexOMPMask.obj
 0002:00003f24       $stateUnwindMap$?mult@?$SpMatrix@M@@UEBAXAEBV?$Matrix@M@@AEAV2@_N2MM@Z 0000000180020f24     mexOMPMask.obj
 0002:00003f64       $ip2state$?mult@?$SpMatrix@M@@UEBAXAEBV?$Matrix@M@@AEAV2@_N2MM@Z 0000000180020f64     mexOMPMask.obj
 0002:00003fec       $unwind$?mult@?$SpMatrix@M@@UEBAXAEBV1@AEAV?$Matrix@M@@_N2MM@Z 0000000180020fec     mexOMPMask.obj
 0002:00003ffc       $stateUnwindMap$?mult@?$SpMatrix@M@@UEBAXAEBV1@AEAV?$Matrix@M@@_N2MM@Z 0000000180020ffc     mexOMPMask.obj
 0002:0000403c       $ip2state$?mult@?$SpMatrix@M@@UEBAXAEBV1@AEAV?$Matrix@M@@_N2MM@Z 000000018002103c     mexOMPMask.obj
 0002:000040c4       $unwind$?dot@?$SpMatrix@N@@UEBANAEBV?$Matrix@N@@@Z 00000001800210c4     mexOMPMask.obj
 0002:000040c4       $unwind$?dot@?$SpMatrix@M@@UEBAMAEBV?$Matrix@M@@@Z 00000001800210c4     mexOMPMask.obj
 0002:000040cc       $unwind$?norm_2sq_cols@?$SpMatrix@M@@UEBAXAEAV?$Vector@M@@@Z 00000001800210cc     mexOMPMask.obj
 0002:000040dc       $ip2state$?norm_2sq_cols@?$SpMatrix@M@@UEBAXAEAV?$Vector@M@@@Z 00000001800210dc     mexOMPMask.obj
 0002:000040f4       $unwind$??$omp_mask@M@@YAXAEBV?$Matrix@M@@0AEAV?$SpMatrix@M@@AEBV?$Matrix@_N@@PEBHPEBM4_N55HPEAV0@@Z 00000001800210f4     mexOMPMask.obj
 0002:00004108       $stateUnwindMap$??$omp_mask@M@@YAXAEBV?$Matrix@M@@0AEAV?$SpMatrix@M@@AEBV?$Matrix@_N@@PEBHPEBM4_N55HPEAV0@@Z 0000000180021108     mexOMPMask.obj
 0002:000041a0       $ip2state$??$omp_mask@M@@YAXAEBV?$Matrix@M@@0AEAV?$SpMatrix@M@@AEBV?$Matrix@_N@@PEBHPEBM4_N55HPEAV0@@Z 00000001800211a0     mexOMPMask.obj
 0002:00004300       $unwind$?dtor$2@?0???0?$Matrix@N@@QEAA@_J0@Z@4HA 0000000180021300     mexOMPMask.obj
 0002:00004300       $unwind$?dtor$0@?0??mult@?$SpMatrix@N@@UEBAXAEBV?$Matrix@N@@AEAV2@_N2NN@Z@4HA 0000000180021300     mexOMPMask.obj
 0002:00004300       $unwind$?dtor$1@?0???0?$Matrix@N@@QEAA@_J0@Z@4HA 0000000180021300     mexOMPMask.obj
 0002:00004300       $unwind$?dtor$6@?0???$omp_mask@N@@YAXAEBV?$Matrix@N@@0AEAV?$SpMatrix@N@@AEBV?$Matrix@_N@@PEBHPEBN4_N55HPEAV0@@Z@4HA 0000000180021300     mexOMPMask.obj
 0002:00004300       $unwind$?dtor$1@?0???0?$Matrix@_J@@QEAA@_J0@Z@4HA 0000000180021300     mexOMPMask.obj
 0002:00004300       $unwind$?dtor$0@?0???0?$Matrix@N@@QEAA@_J0@Z@4HA 0000000180021300     mexOMPMask.obj
 0002:00004300       $unwind$?dtor$1@?0???$omp_mask@N@@YAXAEBV?$Matrix@N@@0AEAV?$SpMatrix@N@@AEBV?$Matrix@_N@@PEBHPEBN4_N55HPEAV0@@Z@4HA 0000000180021300     mexOMPMask.obj
 0002:00004300       $unwind$?dtor$0@?0??copyCol@?$ProdMatrix@M@@UEBAX_JAEAV?$Vector@M@@@Z@4HA 0000000180021300     mexOMPMask.obj
 0002:00004300       $unwind$?dtor$7@?0???$omp_mask@N@@YAXAEBV?$Matrix@N@@0AEAV?$SpMatrix@N@@AEBV?$Matrix@_N@@PEBHPEBN4_N55HPEAV0@@Z@4HA 0000000180021300     mexOMPMask.obj
 0002:00004300       $unwind$?dtor$0@?0???$omp_mask@N@@YAXAEBV?$Matrix@N@@0AEAV?$SpMatrix@N@@AEBV?$Matrix@_N@@PEBHPEBN4_N55HPEAV0@@Z@4HA 0000000180021300     mexOMPMask.obj
 0002:00004300       $unwind$?dtor$1@?0???$coreORMP@N@@YAXAEAV?$Vector@N@@00AEAV?$Matrix@N@@1110AEBV?$AbstractMatrix@N@@AEAV?$Vector@_J@@0AEANPEBNPEBH5PEAN@Z@4HA 0000000180021300     mexOMPMask.obj
 0002:00004300       $unwind$?dtor$1@?0??mult@?$SpMatrix@N@@UEBAXAEBV?$Matrix@N@@AEAV2@_N2NN@Z@4HA 0000000180021300     mexOMPMask.obj
 0002:00004300       $unwind$?dtor$4@?0???$omp_mask@N@@YAXAEBV?$Matrix@N@@0AEAV?$SpMatrix@N@@AEBV?$Matrix@_N@@PEBHPEBN4_N55HPEAV0@@Z@4HA 0000000180021300     mexOMPMask.obj
 0002:00004300       $unwind$?dtor$8@?0???$omp_mask@N@@YAXAEBV?$Matrix@N@@0AEAV?$SpMatrix@N@@AEBV?$Matrix@_N@@PEBHPEBN4_N55HPEAV0@@Z@4HA 0000000180021300     mexOMPMask.obj
 0002:00004300       $unwind$?dtor$0@?0??extract_rawCol@?$ProdMatrix@M@@UEBAX_JPEAM@Z@4HA 0000000180021300     mexOMPMask.obj
 0002:00004300       $unwind$?dtor$1@?0??extract_rawCol@?$ProdMatrix@M@@UEBAX_JPEAM@Z@4HA 0000000180021300     mexOMPMask.obj
 0002:00004300       $unwind$?dtor$9@?0???$omp_mask@N@@YAXAEBV?$Matrix@N@@0AEAV?$SpMatrix@N@@AEBV?$Matrix@_N@@PEBHPEBN4_N55HPEAV0@@Z@4HA 0000000180021300     mexOMPMask.obj
 0002:00004300       $unwind$?dtor$10@?0???$omp_mask@N@@YAXAEBV?$Matrix@N@@0AEAV?$SpMatrix@N@@AEBV?$Matrix@_N@@PEBHPEBN4_N55HPEAV0@@Z@4HA 0000000180021300     mexOMPMask.obj
 0002:00004300       $unwind$?dtor$0@?0??multTrans@?$Matrix@N@@QEBAXAEBV?$SpVector@N@@AEAV?$Vector@N@@NN@Z@4HA 0000000180021300     mexOMPMask.obj
 0002:00004300       $unwind$?dtor$0@?0??add_rawCol@?$ProdMatrix@M@@UEBAX_JPEAMM@Z@4HA 0000000180021300     mexOMPMask.obj
 0002:00004300       $unwind$?dtor$1@?0???R?$ProdMatrix@N@@UEBAN_J0@Z@4HA 0000000180021300     mexOMPMask.obj
 0002:00004300       $unwind$?dtor$1@?0??add_rawCol@?$ProdMatrix@M@@UEBAX_JPEAMM@Z@4HA 0000000180021300     mexOMPMask.obj
 0002:00004300       $unwind$?dtor$0@?0??rank1Update@?$Matrix@M@@QEAAXAEBV?$Vector@M@@AEBV?$SpVector@M@@M@Z@4HA 0000000180021300     mexOMPMask.obj
 0002:00004300       $unwind$?dtor$0@?0???R?$ProdMatrix@N@@UEBAN_J0@Z@4HA 0000000180021300     mexOMPMask.obj
 0002:00004300       $unwind$?dtor$2@?0???0?$Matrix@_J@@QEAA@_J0@Z@4HA 0000000180021300     mexOMPMask.obj
 0002:00004300       $unwind$?dtor$1@?0??XtX@?$SpMatrix@N@@UEBAXAEAV?$Matrix@N@@@Z@4HA 0000000180021300     mexOMPMask.obj
 0002:00004300       $unwind$?dtor$0@?0??multTrans@?$SpMatrix@M@@QEBAXAEBV?$SpVector@M@@AEAV?$Vector@M@@MM@Z@4HA 0000000180021300     mexOMPMask.obj
 0002:00004300       $unwind$?dtor$0@?0??norm_2sq_cols@?$SpMatrix@N@@UEBAXAEAV?$Vector@N@@@Z@4HA 0000000180021300     mexOMPMask.obj
 0002:00004300       $unwind$?dtor$1@?0??diag@?$ProdMatrix@N@@UEBAXAEAV?$Vector@N@@@Z@4HA 0000000180021300     mexOMPMask.obj
 0002:00004300       $unwind$?dtor$0@?0??XtX@?$SpMatrix@N@@UEBAXAEAV?$Matrix@N@@@Z@4HA 0000000180021300     mexOMPMask.obj
 0002:00004300       $unwind$?dtor$11@?0???$omp_mask@N@@YAXAEBV?$Matrix@N@@0AEAV?$SpMatrix@N@@AEBV?$Matrix@_N@@PEBHPEBN4_N55HPEAV0@@Z@4HA 0000000180021300     mexOMPMask.obj
 0002:00004300       $unwind$?dtor$7@?0??mult@?$Matrix@M@@UEBAXAEBV?$SpMatrix@M@@AEAV1@_N2MM@Z@4HA 0000000180021300     mexOMPMask.obj
 0002:00004300       $unwind$?dtor$12@?0???$omp_mask@N@@YAXAEBV?$Matrix@N@@0AEAV?$SpMatrix@N@@AEBV?$Matrix@_N@@PEBHPEBN4_N55HPEAV0@@Z@4HA 0000000180021300     mexOMPMask.obj
 0002:00004300       $unwind$?dtor$0@?0??mult@?$Matrix@N@@UEBAXAEBV?$SpMatrix@N@@AEAV1@_N2NN@Z@4HA 0000000180021300     mexOMPMask.obj
 0002:00004300       $unwind$?dtor$2@?0??mult@?$SpMatrix@N@@UEBAXAEBV?$Matrix@N@@AEAV2@_N2NN@Z@4HA 0000000180021300     mexOMPMask.obj
 0002:00004300       $unwind$?dtor$1@?0??mult@?$Matrix@N@@UEBAXAEBV?$SpMatrix@N@@AEAV1@_N2NN@Z@4HA 0000000180021300     mexOMPMask.obj
 0002:00004300       $unwind$?dtor$0@?0??diag@?$ProdMatrix@N@@UEBAXAEAV?$Vector@N@@@Z@4HA 0000000180021300     mexOMPMask.obj
 0002:00004300       $unwind$?dtor$2@?0??mult@?$Matrix@N@@UEBAXAEBV?$SpMatrix@N@@AEAV1@_N2NN@Z@4HA 0000000180021300     mexOMPMask.obj
 0002:00004300       $unwind$?dtor$6@?0??mult@?$Matrix@M@@UEBAXAEBV?$SpMatrix@M@@AEAV1@_N2MM@Z@4HA 0000000180021300     mexOMPMask.obj
 0002:00004300       $unwind$?dtor$3@?0??mult@?$Matrix@N@@UEBAXAEBV?$SpMatrix@N@@AEAV1@_N2NN@Z@4HA 0000000180021300     mexOMPMask.obj
 0002:00004300       $unwind$?dtor$13@?0???$omp_mask@N@@YAXAEBV?$Matrix@N@@0AEAV?$SpMatrix@N@@AEBV?$Matrix@_N@@PEBHPEBN4_N55HPEAV0@@Z@4HA 0000000180021300     mexOMPMask.obj
 0002:00004300       $unwind$?dtor$4@?0??mult@?$Matrix@N@@UEBAXAEBV?$SpMatrix@N@@AEAV1@_N2NN@Z@4HA 0000000180021300     mexOMPMask.obj
 0002:00004300       $unwind$?dtor$3@?0??mult@?$SpMatrix@N@@UEBAXAEBV?$Matrix@N@@AEAV2@_N2NN@Z@4HA 0000000180021300     mexOMPMask.obj
 0002:00004300       $unwind$?dtor$5@?0??mult@?$Matrix@N@@UEBAXAEBV?$SpMatrix@N@@AEAV1@_N2NN@Z@4HA 0000000180021300     mexOMPMask.obj
 0002:00004300       $unwind$?dtor$0@?0??diag@?$ProdMatrix@M@@UEBAXAEAV?$Vector@M@@@Z@4HA 0000000180021300     mexOMPMask.obj
 0002:00004300       $unwind$?dtor$6@?0??mult@?$Matrix@N@@UEBAXAEBV?$SpMatrix@N@@AEAV1@_N2NN@Z@4HA 0000000180021300     mexOMPMask.obj
 0002:00004300       $unwind$?dtor$1@?0??diag@?$ProdMatrix@M@@UEBAXAEAV?$Vector@M@@@Z@4HA 0000000180021300     mexOMPMask.obj
 0002:00004300       $unwind$?dtor$7@?0??mult@?$Matrix@N@@UEBAXAEBV?$SpMatrix@N@@AEAV1@_N2NN@Z@4HA 0000000180021300     mexOMPMask.obj
 0002:00004300       $unwind$?dtor$1@?0??add_rawCol@?$ProdMatrix@N@@UEBAX_JPEANN@Z@4HA 0000000180021300     mexOMPMask.obj
 0002:00004300       $unwind$?dtor$0@?0??multTrans@?$Matrix@_J@@QEBAXAEBV?$SpVector@_J@@AEAV?$Vector@_J@@_J2@Z@4HA 0000000180021300     mexOMPMask.obj
 0002:00004300       $unwind$?dtor$0@?0??multTrans@?$SpMatrix@N@@QEBAXAEBV?$SpVector@N@@AEAV?$Vector@N@@NN@Z@4HA 0000000180021300     mexOMPMask.obj
 0002:00004300       $unwind$?dtor$5@?0??mult@?$Matrix@M@@UEBAXAEBV?$SpMatrix@M@@AEAV1@_N2MM@Z@4HA 0000000180021300     mexOMPMask.obj
 0002:00004300       $unwind$?dtor$2@?0???1?$Matrix@_J@@UEAA@XZ@4HA 0000000180021300     mexOMPMask.obj
 0002:00004300       $unwind$?dtor$14@?0???$omp_mask@N@@YAXAEBV?$Matrix@N@@0AEAV?$SpMatrix@N@@AEBV?$Matrix@_N@@PEBHPEBN4_N55HPEAV0@@Z@4HA 0000000180021300     mexOMPMask.obj
 0002:00004300       $unwind$?dtor$0@?0???0sentry@?$basic_ostream@DU?$char_traits@D@std@@@std@@QEAA@AEAV12@@Z@4HA 0000000180021300     mexOMPMask.obj
 0002:00004300       $unwind$?dtor$4@?0??mult@?$Matrix@M@@UEBAXAEBV?$SpMatrix@M@@AEAV1@_N2MM@Z@4HA 0000000180021300     mexOMPMask.obj
 0002:00004300       $unwind$?dtor$0@?0??add_rawCol@?$ProdMatrix@N@@UEBAX_JPEANN@Z@4HA 0000000180021300     mexOMPMask.obj
 0002:00004300       $unwind$?dtor$0@?0???R?$ProdMatrix@M@@UEBAM_J0@Z@4HA 0000000180021300     mexOMPMask.obj
 0002:00004300       $unwind$?dtor$2@?0???$omp_mask@N@@YAXAEBV?$Matrix@N@@0AEAV?$SpMatrix@N@@AEBV?$Matrix@_N@@PEBHPEBN4_N55HPEAV0@@Z@4HA 0000000180021300     mexOMPMask.obj
 0002:00004300       $unwind$?dtor$1@?0???R?$ProdMatrix@M@@UEBAM_J0@Z@4HA 0000000180021300     mexOMPMask.obj
 0002:00004300       $unwind$?dtor$0@?0???1?$ProdMatrix@M@@UEAA@XZ@4HA 0000000180021300     mexOMPMask.obj
 0002:00004300       $unwind$?dtor$4@?0??mult@?$SpMatrix@N@@UEBAXAEBV?$Matrix@N@@AEAV2@_N2NN@Z@4HA 0000000180021300     mexOMPMask.obj
 0002:00004300       $unwind$?dtor$5@?0??mult@?$SpMatrix@N@@UEBAXAEBV?$Matrix@N@@AEAV2@_N2NN@Z@4HA 0000000180021300     mexOMPMask.obj
 0002:00004300       $unwind$?dtor$3@?0??mult@?$Matrix@M@@UEBAXAEBV?$SpMatrix@M@@AEAV1@_N2MM@Z@4HA 0000000180021300     mexOMPMask.obj
 0002:00004300       $unwind$?dtor$16@?0???$omp_mask@N@@YAXAEBV?$Matrix@N@@0AEAV?$SpMatrix@N@@AEBV?$Matrix@_N@@PEBHPEBN4_N55HPEAV0@@Z@4HA 0000000180021300     mexOMPMask.obj
 0002:00004300       $unwind$?dtor$1@?0??extract_rawCol@?$ProdMatrix@N@@UEBAX_JPEAN@Z@4HA 0000000180021300     mexOMPMask.obj
 0002:00004300       $unwind$?dtor$0@?0??XtX@?$SpMatrix@M@@UEBAXAEAV?$Matrix@M@@@Z@4HA 0000000180021300     mexOMPMask.obj
 0002:00004300       $unwind$?dtor$0@?0??rank1Update@?$Matrix@N@@QEAAXAEBV?$Vector@N@@AEBV?$SpVector@N@@N@Z@4HA 0000000180021300     mexOMPMask.obj
 0002:00004300       $unwind$?dtor$17@?0???$omp_mask@N@@YAXAEBV?$Matrix@N@@0AEAV?$SpMatrix@N@@AEBV?$Matrix@_N@@PEBHPEBN4_N55HPEAV0@@Z@4HA 0000000180021300     mexOMPMask.obj
 0002:00004300       $unwind$?dtor$6@?0??mult@?$SpMatrix@N@@UEBAXAEBV?$Matrix@N@@AEAV2@_N2NN@Z@4HA 0000000180021300     mexOMPMask.obj
 0002:00004300       $unwind$?dtor$1@?0??mult@?$Matrix@M@@UEBAXAEBV?$SpMatrix@M@@AEAV1@_N2MM@Z@4HA 0000000180021300     mexOMPMask.obj
 0002:00004300       $unwind$?dtor$4@?0???$callFunction@M@@YAXQEAPEAUmxArray_tag@@QEAPEBU0@H@Z@4HA 0000000180021300     mexOMPMask.obj
 0002:00004300       $unwind$?dtor$0@?0??extract_rawCol@?$ProdMatrix@N@@UEBAX_JPEAN@Z@4HA 0000000180021300     mexOMPMask.obj
 0002:00004300       $unwind$?dtor$18@?0???$omp_mask@N@@YAXAEBV?$Matrix@N@@0AEAV?$SpMatrix@N@@AEBV?$Matrix@_N@@PEBHPEBN4_N55HPEAV0@@Z@4HA 0000000180021300     mexOMPMask.obj
 0002:00004300       $unwind$?dtor$0@?0???$coreORMP@M@@YAXAEAV?$Vector@M@@00AEAV?$Matrix@M@@1110AEBV?$AbstractMatrix@M@@AEAV?$Vector@_J@@0AEAMPEBMPEBH5PEAM@Z@4HA 0000000180021300     mexOMPMask.obj
 0002:00004300       $unwind$?dtor$3@?0???$callFunction@M@@YAXQEAPEAUmxArray_tag@@QEAPEBU0@H@Z@4HA 0000000180021300     mexOMPMask.obj
 0002:00004300       $unwind$?dtor$18@?0???$omp_mask@M@@YAXAEBV?$Matrix@M@@0AEAV?$SpMatrix@M@@AEBV?$Matrix@_N@@PEBHPEBM4_N55HPEAV0@@Z@4HA 0000000180021300     mexOMPMask.obj
 0002:00004300       $unwind$?dtor$2@?0???$callFunction@M@@YAXQEAPEAUmxArray_tag@@QEAPEBU0@H@Z@4HA 0000000180021300     mexOMPMask.obj
 0002:00004300       $unwind$?dtor$0@?0??norm_2sq_cols@?$Matrix@M@@UEBAXAEAV?$Vector@M@@@Z@4HA 0000000180021300     mexOMPMask.obj
 0002:00004300       $unwind$?dtor$7@?0??mult@?$SpMatrix@N@@UEBAXAEBV?$Matrix@N@@AEAV2@_N2NN@Z@4HA 0000000180021300     mexOMPMask.obj
 0002:00004300       $unwind$?dtor$0@?0???0?$Matrix@_J@@QEAA@_J0@Z@4HA 0000000180021300     mexOMPMask.obj
 0002:00004300       $unwind$?dtor$1@?0???$callFunction@M@@YAXQEAPEAUmxArray_tag@@QEAPEBU0@H@Z@4HA 0000000180021300     mexOMPMask.obj
 0002:00004300       $unwind$?dtor$15@?0???$omp_mask@M@@YAXAEBV?$Matrix@M@@0AEAV?$SpMatrix@M@@AEBV?$Matrix@_N@@PEBHPEBM4_N55HPEAV0@@Z@4HA 0000000180021300     mexOMPMask.obj
 0002:00004300       $unwind$?dtor$0@?0??mult@?$Matrix@M@@UEBAXAEBV?$SpMatrix@M@@AEAV1@_N2MM@Z@4HA 0000000180021300     mexOMPMask.obj
 0002:00004300       $unwind$?dtor$14@?0???$omp_mask@M@@YAXAEBV?$Matrix@M@@0AEAV?$SpMatrix@M@@AEBV?$Matrix@_N@@PEBHPEBM4_N55HPEAV0@@Z@4HA 0000000180021300     mexOMPMask.obj
 0002:00004300       $unwind$?dtor$1@?0???$coreORMP@M@@YAXAEAV?$Vector@M@@00AEAV?$Matrix@M@@1110AEBV?$AbstractMatrix@M@@AEAV?$Vector@_J@@0AEAMPEBMPEBH5PEAM@Z@4HA 0000000180021300     mexOMPMask.obj
 0002:00004300       $unwind$?dtor$13@?0???$omp_mask@M@@YAXAEBV?$Matrix@M@@0AEAV?$SpMatrix@M@@AEBV?$Matrix@_N@@PEBHPEBM4_N55HPEAV0@@Z@4HA 0000000180021300     mexOMPMask.obj
 0002:00004300       $unwind$?dtor$0@?0??mult@?$Matrix@_J@@UEBAXAEBV?$SpMatrix@_J@@AEAV1@_N2_J3@Z@4HA 0000000180021300     mexOMPMask.obj
 0002:00004300       $unwind$?dtor$0@?0???$callFunction@M@@YAXQEAPEAUmxArray_tag@@QEAPEBU0@H@Z@4HA 0000000180021300     mexOMPMask.obj
 0002:00004300       $unwind$?dtor$1@?0???0?$ProdMatrix@M@@QEAA@AEBV?$Matrix@M@@_N@Z@4HA 0000000180021300     mexOMPMask.obj
 0002:00004300       $unwind$?dtor$0@?0???1?$Matrix@_N@@UEAA@XZ@4HA 0000000180021300     mexOMPMask.obj
 0002:00004300       $unwind$?dtor$12@?0???$omp_mask@M@@YAXAEBV?$Matrix@M@@0AEAV?$SpMatrix@M@@AEBV?$Matrix@_N@@PEBHPEBM4_N55HPEAV0@@Z@4HA 0000000180021300     mexOMPMask.obj
 0002:00004300       $unwind$?dtor$1@?0???1?$Matrix@_N@@UEAA@XZ@4HA 0000000180021300     mexOMPMask.obj
 0002:00004300       $unwind$?dtor$11@?0???$omp_mask@M@@YAXAEBV?$Matrix@M@@0AEAV?$SpMatrix@M@@AEBV?$Matrix@_N@@PEBHPEBM4_N55HPEAV0@@Z@4HA 0000000180021300     mexOMPMask.obj
 0002:00004300       $unwind$?dtor$2@?0???1?$Matrix@_N@@UEAA@XZ@4HA 0000000180021300     mexOMPMask.obj
 0002:00004300       $unwind$?dtor$10@?0???$omp_mask@M@@YAXAEBV?$Matrix@M@@0AEAV?$SpMatrix@M@@AEBV?$Matrix@_N@@PEBHPEBM4_N55HPEAV0@@Z@4HA 0000000180021300     mexOMPMask.obj
 0002:00004300       $unwind$?dtor$0@?0??copyCol@?$ProdMatrix@N@@UEBAX_JAEAV?$Vector@N@@@Z@4HA 0000000180021300     mexOMPMask.obj
 0002:00004300       $unwind$?dtor$9@?0???$omp_mask@M@@YAXAEBV?$Matrix@M@@0AEAV?$SpMatrix@M@@AEBV?$Matrix@_N@@PEBHPEBM4_N55HPEAV0@@Z@4HA 0000000180021300     mexOMPMask.obj
 0002:00004300       $unwind$?dtor$1@?0??mult@?$Matrix@_J@@UEBAXAEBV?$SpMatrix@_J@@AEAV1@_N2_J3@Z@4HA 0000000180021300     mexOMPMask.obj
 0002:00004300       $unwind$?dtor$8@?0???$omp_mask@M@@YAXAEBV?$Matrix@M@@0AEAV?$SpMatrix@M@@AEBV?$Matrix@_N@@PEBHPEBM4_N55HPEAV0@@Z@4HA 0000000180021300     mexOMPMask.obj
 0002:00004300       $unwind$?dtor$1@?0???1?$Matrix@N@@UEAA@XZ@4HA 0000000180021300     mexOMPMask.obj
 0002:00004300       $unwind$?dtor$7@?0???$omp_mask@M@@YAXAEBV?$Matrix@M@@0AEAV?$SpMatrix@M@@AEBV?$Matrix@_N@@PEBHPEBM4_N55HPEAV0@@Z@4HA 0000000180021300     mexOMPMask.obj
 0002:00004300       $unwind$?dtor$0@?0??getGroup@?$SpMatrix@N@@UEBAXAEAV?$Matrix@N@@AEBV?$vector@V?$list@_JV?$allocator@_J@std@@@std@@V?$allocator@V?$list@_JV?$allocator@_J@std@@@std@@@2@@std@@_J@Z@4HA 0000000180021300     mexOMPMask.obj
 0002:00004300       $unwind$?dtor$6@?0???$omp_mask@M@@YAXAEBV?$Matrix@M@@0AEAV?$SpMatrix@M@@AEBV?$Matrix@_N@@PEBHPEBM4_N55HPEAV0@@Z@4HA 0000000180021300     mexOMPMask.obj
 0002:00004300       $unwind$?dtor$2@?0??mult@?$Matrix@_J@@UEBAXAEBV?$SpMatrix@_J@@AEAV1@_N2_J3@Z@4HA 0000000180021300     mexOMPMask.obj
 0002:00004300       $unwind$?dtor$5@?0???$omp_mask@M@@YAXAEBV?$Matrix@M@@0AEAV?$SpMatrix@M@@AEBV?$Matrix@_N@@PEBHPEBM4_N55HPEAV0@@Z@4HA 0000000180021300     mexOMPMask.obj
 0002:00004300       $unwind$?dtor$0@?0???$construct@PEADAEAPEAD@?$allocator@D@std@@QEAAXPEAPEADAEAPEAD@Z@4HA 0000000180021300     mexOMPMask.obj
 0002:00004300       $unwind$?dtor$4@?0???$omp_mask@M@@YAXAEBV?$Matrix@M@@0AEAV?$SpMatrix@M@@AEBV?$Matrix@_N@@PEBHPEBM4_N55HPEAV0@@Z@4HA 0000000180021300     mexOMPMask.obj
 0002:00004300       $unwind$?dtor$4@?0???$callFunction@N@@YAXQEAPEAUmxArray_tag@@QEAPEBU0@H@Z@4HA 0000000180021300     mexOMPMask.obj
 0002:00004300       $unwind$?dtor$3@?0???$omp_mask@M@@YAXAEBV?$Matrix@M@@0AEAV?$SpMatrix@M@@AEBV?$Matrix@_N@@PEBHPEBM4_N55HPEAV0@@Z@4HA 0000000180021300     mexOMPMask.obj
 0002:00004300       $unwind$?dtor$3@?0??mult@?$Matrix@_J@@UEBAXAEBV?$SpMatrix@_J@@AEAV1@_N2_J3@Z@4HA 0000000180021300     mexOMPMask.obj
 0002:00004300       $unwind$?dtor$2@?0???$omp_mask@M@@YAXAEBV?$Matrix@M@@0AEAV?$SpMatrix@M@@AEBV?$Matrix@_N@@PEBHPEBM4_N55HPEAV0@@Z@4HA 0000000180021300     mexOMPMask.obj
 0002:00004300       $unwind$?dtor$3@?0???$callFunction@N@@YAXQEAPEAUmxArray_tag@@QEAPEBU0@H@Z@4HA 0000000180021300     mexOMPMask.obj
 0002:00004300       $unwind$?dtor$1@?0???$omp_mask@M@@YAXAEBV?$Matrix@M@@0AEAV?$SpMatrix@M@@AEBV?$Matrix@_N@@PEBHPEBM4_N55HPEAV0@@Z@4HA 0000000180021300     mexOMPMask.obj
 0002:00004300       $unwind$?dtor$4@?0??mult@?$Matrix@_J@@UEBAXAEBV?$SpMatrix@_J@@AEAV1@_N2_J3@Z@4HA 0000000180021300     mexOMPMask.obj
 0002:00004300       $unwind$?dtor$0@?0???$omp_mask@M@@YAXAEBV?$Matrix@M@@0AEAV?$SpMatrix@M@@AEBV?$Matrix@_N@@PEBHPEBM4_N55HPEAV0@@Z@4HA 0000000180021300     mexOMPMask.obj
 0002:00004300       $unwind$?dtor$2@?0???$callFunction@N@@YAXQEAPEAUmxArray_tag@@QEAPEBU0@H@Z@4HA 0000000180021300     mexOMPMask.obj
 0002:00004300       $unwind$?dtor$15@?0???$omp_mask@N@@YAXAEBV?$Matrix@N@@0AEAV?$SpMatrix@N@@AEBV?$Matrix@_N@@PEBHPEBN4_N55HPEAV0@@Z@4HA 0000000180021300     mexOMPMask.obj
 0002:00004300       $unwind$?dtor$5@?0??mult@?$Matrix@_J@@UEBAXAEBV?$SpMatrix@_J@@AEAV1@_N2_J3@Z@4HA 0000000180021300     mexOMPMask.obj
 0002:00004300       $unwind$?dtor$5@?0???$omp_mask@N@@YAXAEBV?$Matrix@N@@0AEAV?$SpMatrix@N@@AEBV?$Matrix@_N@@PEBHPEBN4_N55HPEAV0@@Z@4HA 0000000180021300     mexOMPMask.obj
 0002:00004300       $unwind$?dtor$1@?0???$callFunction@N@@YAXQEAPEAUmxArray_tag@@QEAPEBU0@H@Z@4HA 0000000180021300     mexOMPMask.obj
 0002:00004300       $unwind$?dtor$6@?0??mult@?$Matrix@_J@@UEBAXAEBV?$SpMatrix@_J@@AEAV1@_N2_J3@Z@4HA 0000000180021300     mexOMPMask.obj
 0002:00004300       $unwind$?dtor$0@?0???$callFunction@N@@YAXQEAPEAUmxArray_tag@@QEAPEBU0@H@Z@4HA 0000000180021300     mexOMPMask.obj
 0002:00004300       $unwind$?dtor$0@?0??norm_2sq_cols@?$Matrix@N@@UEBAXAEAV?$Vector@N@@@Z@4HA 0000000180021300     mexOMPMask.obj
 0002:00004300       $unwind$?dtor$7@?0??mult@?$SpMatrix@N@@UEBAXAEBV1@AEAV?$Matrix@N@@_N2NN@Z@4HA 0000000180021300     mexOMPMask.obj
 0002:00004300       $unwind$?dtor$0@?0???1?$SpMatrix@M@@UEAA@XZ@4HA 0000000180021300     mexOMPMask.obj
 0002:00004300       $unwind$?dtor$6@?0??mult@?$SpMatrix@N@@UEBAXAEBV1@AEAV?$Matrix@N@@_N2NN@Z@4HA 0000000180021300     mexOMPMask.obj
 0002:00004300       $unwind$?dtor$0@?0??norm_2sq_cols@?$SpMatrix@M@@UEBAXAEAV?$Vector@M@@@Z@4HA 0000000180021300     mexOMPMask.obj
 0002:00004300       $unwind$?dtor$0@?0???0?$Matrix@M@@QEAA@_J0@Z@4HA 0000000180021300     mexOMPMask.obj
 0002:00004300       $unwind$?dtor$0@?0???0?$ProdMatrix@M@@QEAA@AEBV?$Matrix@M@@_N@Z@4HA 0000000180021300     mexOMPMask.obj
 0002:00004300       $unwind$?dtor$7@?0??mult@?$Matrix@_J@@UEBAXAEBV?$SpMatrix@_J@@AEAV1@_N2_J3@Z@4HA 0000000180021300     mexOMPMask.obj
 0002:00004300       $unwind$?dtor$1@?0???0?$Matrix@M@@QEAA@_J0@Z@4HA 0000000180021300     mexOMPMask.obj
 0002:00004300       $unwind$?dtor$0@?0???1?$ProdMatrix@N@@UEAA@XZ@4HA 0000000180021300     mexOMPMask.obj
 0002:00004300       $unwind$?dtor$0@?0??multTrans@?$Matrix@_N@@QEBAXAEBV?$SpVector@_N@@AEAV?$Vector@_N@@_N2@Z@4HA 0000000180021300     mexOMPMask.obj
 0002:00004300       $unwind$?dtor$0@?0??getGroup@?$SpMatrix@M@@UEBAXAEAV?$Matrix@M@@AEBV?$vector@V?$list@_JV?$allocator@_J@std@@@std@@V?$allocator@V?$list@_JV?$allocator@_J@std@@@std@@@2@@std@@_J@Z@4HA 0000000180021300     mexOMPMask.obj
 0002:00004300       $unwind$?dtor$1@?0???1?$SpMatrix@M@@UEAA@XZ@4HA 0000000180021300     mexOMPMask.obj
 0002:00004300       $unwind$?dtor$2@?0???0?$Matrix@M@@QEAA@_J0@Z@4HA 0000000180021300     mexOMPMask.obj
 0002:00004300       $unwind$?dtor$1@?0???1?$Matrix@_J@@UEAA@XZ@4HA 0000000180021300     mexOMPMask.obj
 0002:00004300       $unwind$?dtor$2@?0??mult@?$Matrix@M@@UEBAXAEBV?$SpMatrix@M@@AEAV1@_N2MM@Z@4HA 0000000180021300     mexOMPMask.obj
 0002:00004300       $unwind$?dtor$5@?0??mult@?$SpMatrix@N@@UEBAXAEBV1@AEAV?$Matrix@N@@_N2NN@Z@4HA 0000000180021300     mexOMPMask.obj
 0002:00004300       $unwind$?dtor$2@?0???1?$Matrix@N@@UEAA@XZ@4HA 0000000180021300     mexOMPMask.obj
 0002:00004300       $unwind$?dtor$0@?0??mult@?$SpMatrix@M@@UEBAXAEBV?$Matrix@M@@AEAV2@_N2MM@Z@4HA 0000000180021300     mexOMPMask.obj
 0002:00004300       $unwind$?dtor$0@?0??multTrans@?$Matrix@M@@QEBAXAEBV?$SpVector@M@@AEAV?$Vector@M@@MM@Z@4HA 0000000180021300     mexOMPMask.obj
 0002:00004300       $unwind$?dtor$4@?0??mult@?$SpMatrix@N@@UEBAXAEBV1@AEAV?$Matrix@N@@_N2NN@Z@4HA 0000000180021300     mexOMPMask.obj
 0002:00004300       $unwind$?dtor$1@?0???0?$ProdMatrix@N@@QEAA@AEBV?$Matrix@N@@_N@Z@4HA 0000000180021300     mexOMPMask.obj
 0002:00004300       $unwind$?dtor$0@?0???0?$ProdMatrix@N@@QEAA@AEBV?$Matrix@N@@_N@Z@4HA 0000000180021300     mexOMPMask.obj
 0002:00004300       $unwind$?fin$0@?0???_L@YAXPEAX_KHP6AX0@Z2@Z@4HA 0000000180021300     mexOMPMask.obj
 0002:00004300       $unwind$?dtor$3@?0??mult@?$SpMatrix@N@@UEBAXAEBV1@AEAV?$Matrix@N@@_N2NN@Z@4HA 0000000180021300     mexOMPMask.obj
 0002:00004300       $unwind$?dtor$0@?0??mult@?$Matrix@_N@@UEBAXAEBV?$SpMatrix@_N@@AEAV1@_N222@Z@4HA 0000000180021300     mexOMPMask.obj
 0002:00004300       $unwind$?dtor$3@?0???$omp_mask@N@@YAXAEBV?$Matrix@N@@0AEAV?$SpMatrix@N@@AEBV?$Matrix@_N@@PEBHPEBN4_N55HPEAV0@@Z@4HA 0000000180021300     mexOMPMask.obj
 0002:00004300       $unwind$?dtor$1@?0??mult@?$Matrix@_N@@UEBAXAEBV?$SpMatrix@_N@@AEAV1@_N222@Z@4HA 0000000180021300     mexOMPMask.obj
 0002:00004300       $unwind$?dtor$1@?0??XtX@?$SpMatrix@M@@UEBAXAEAV?$Matrix@M@@@Z@4HA 0000000180021300     mexOMPMask.obj
 0002:00004300       $unwind$?dtor$2@?0??mult@?$Matrix@_N@@UEBAXAEBV?$SpMatrix@_N@@AEAV1@_N222@Z@4HA 0000000180021300     mexOMPMask.obj
 0002:00004300       $unwind$?dtor$7@?0??mult@?$SpMatrix@M@@UEBAXAEBV1@AEAV?$Matrix@M@@_N2MM@Z@4HA 0000000180021300     mexOMPMask.obj
 0002:00004300       $unwind$?dtor$3@?0??mult@?$Matrix@_N@@UEBAXAEBV?$SpMatrix@_N@@AEAV1@_N222@Z@4HA 0000000180021300     mexOMPMask.obj
 0002:00004300       $unwind$?dtor$6@?0??mult@?$SpMatrix@M@@UEBAXAEBV1@AEAV?$Matrix@M@@_N2MM@Z@4HA 0000000180021300     mexOMPMask.obj
 0002:00004300       $unwind$?dtor$4@?0??mult@?$Matrix@_N@@UEBAXAEBV?$SpMatrix@_N@@AEAV1@_N222@Z@4HA 0000000180021300     mexOMPMask.obj
 0002:00004300       $unwind$?dtor$5@?0??mult@?$SpMatrix@M@@UEBAXAEBV1@AEAV?$Matrix@M@@_N2MM@Z@4HA 0000000180021300     mexOMPMask.obj
 0002:00004300       $unwind$?dtor$5@?0??mult@?$Matrix@_N@@UEBAXAEBV?$SpMatrix@_N@@AEAV1@_N222@Z@4HA 0000000180021300     mexOMPMask.obj
 0002:00004300       $unwind$?dtor$4@?0??mult@?$SpMatrix@M@@UEBAXAEBV1@AEAV?$Matrix@M@@_N2MM@Z@4HA 0000000180021300     mexOMPMask.obj
 0002:00004300       $unwind$?dtor$6@?0??mult@?$Matrix@_N@@UEBAXAEBV?$SpMatrix@_N@@AEAV1@_N222@Z@4HA 0000000180021300     mexOMPMask.obj
 0002:00004300       $unwind$?dtor$3@?0??mult@?$SpMatrix@M@@UEBAXAEBV1@AEAV?$Matrix@M@@_N2MM@Z@4HA 0000000180021300     mexOMPMask.obj
 0002:00004300       $unwind$?dtor$7@?0??mult@?$Matrix@_N@@UEBAXAEBV?$SpMatrix@_N@@AEAV1@_N222@Z@4HA 0000000180021300     mexOMPMask.obj
 0002:00004300       $unwind$?dtor$2@?0??mult@?$SpMatrix@M@@UEBAXAEBV1@AEAV?$Matrix@M@@_N2MM@Z@4HA 0000000180021300     mexOMPMask.obj
 0002:00004300       $unwind$?dtor$1@?0??mult@?$SpMatrix@M@@UEBAXAEBV?$Matrix@M@@AEAV2@_N2MM@Z@4HA 0000000180021300     mexOMPMask.obj
 0002:00004300       $unwind$?dtor$1@?0??mult@?$SpMatrix@M@@UEBAXAEBV1@AEAV?$Matrix@M@@_N2MM@Z@4HA 0000000180021300     mexOMPMask.obj
 0002:00004300       $unwind$?dtor$2@?0??mult@?$SpMatrix@N@@UEBAXAEBV1@AEAV?$Matrix@N@@_N2NN@Z@4HA 0000000180021300     mexOMPMask.obj
 0002:00004300       $unwind$?dtor$0@?0??mult@?$SpMatrix@M@@UEBAXAEBV1@AEAV?$Matrix@M@@_N2MM@Z@4HA 0000000180021300     mexOMPMask.obj
 0002:00004300       $unwind$?fin$0@?0???_M@YAXPEAX_KHP6AX0@Z@Z@4HA 0000000180021300     mexOMPMask.obj
 0002:00004300       $unwind$?dtor$16@?0???$omp_mask@M@@YAXAEBV?$Matrix@M@@0AEAV?$SpMatrix@M@@AEBV?$Matrix@_N@@PEBHPEBM4_N55HPEAV0@@Z@4HA 0000000180021300     mexOMPMask.obj
 0002:00004300       $unwind$?dtor$0@?0???1?$Matrix@M@@UEAA@XZ@4HA 0000000180021300     mexOMPMask.obj
 0002:00004300       $unwind$?dtor$0@?0???1?$Matrix@N@@UEAA@XZ@4HA 0000000180021300     mexOMPMask.obj
 0002:00004300       $unwind$?filt$0@?0??__ArrayUnwind@@YAXPEAX_KHP6AX0@Z@Z@4HA 0000000180021300     mexOMPMask.obj
 0002:00004300       $unwind$?dtor$0@?0??norm_2sq_cols@?$Matrix@_J@@UEBAXAEAV?$Vector@_J@@@Z@4HA 0000000180021300     mexOMPMask.obj
 0002:00004300       $unwind$?dtor$1@?0???1?$Matrix@M@@UEAA@XZ@4HA 0000000180021300     mexOMPMask.obj
 0002:00004300       $unwind$?dtor$0@?0??norm_2sq_cols@?$Matrix@_N@@UEBAXAEAV?$Vector@_N@@@Z@4HA 0000000180021300     mexOMPMask.obj
 0002:00004300       $unwind$?dtor$17@?0???$omp_mask@M@@YAXAEBV?$Matrix@M@@0AEAV?$SpMatrix@M@@AEBV?$Matrix@_N@@PEBHPEBM4_N55HPEAV0@@Z@4HA 0000000180021300     mexOMPMask.obj
 0002:00004300       $unwind$_onexit$fin$0      0000000180021300     mexOMPMask.obj
 0002:00004300       $unwind$?dtor$0@?0???1?$Matrix@_J@@UEAA@XZ@4HA 0000000180021300     mexOMPMask.obj
 0002:00004300       $unwind$?dtor$2@?0???1?$Matrix@M@@UEAA@XZ@4HA 0000000180021300     mexOMPMask.obj
 0002:00004300       $unwind$?dtor$1@?0??mult@?$SpMatrix@N@@UEBAXAEBV1@AEAV?$Matrix@N@@_N2NN@Z@4HA 0000000180021300     mexOMPMask.obj
 0002:00004300       $unwind$?dtor$0@?0???$?6U?$char_traits@D@std@@@std@@YAAEAV?$basic_ostream@DU?$char_traits@D@std@@@0@AEAV10@PEBD@Z@4HA 0000000180021300     mexOMPMask.obj
 0002:00004300       $unwind$?dtor$0@?0??rank1Update@?$Matrix@_N@@QEAAXAEBV?$Vector@_N@@AEBV?$SpVector@_N@@_N@Z@4HA 0000000180021300     mexOMPMask.obj
 0002:00004300       $unwind$__DllMainCRTStartup$filt$0 0000000180021300     mexOMPMask.obj
 0002:00004300       $unwind$?dtor$2@?0??mult@?$SpMatrix@M@@UEBAXAEBV?$Matrix@M@@AEAV2@_N2MM@Z@4HA 0000000180021300     mexOMPMask.obj
 0002:00004300       $unwind$?dtor$7@?0??mult@?$SpMatrix@M@@UEBAXAEBV?$Matrix@M@@AEAV2@_N2MM@Z@4HA 0000000180021300     mexOMPMask.obj
 0002:00004300       $unwind$?dtor$0@?0??mult@?$SpMatrix@N@@UEBAXAEBV1@AEAV?$Matrix@N@@_N2NN@Z@4HA 0000000180021300     mexOMPMask.obj
 0002:00004300       $unwind$?dtor$6@?0??mult@?$SpMatrix@M@@UEBAXAEBV?$Matrix@M@@AEAV2@_N2MM@Z@4HA 0000000180021300     mexOMPMask.obj
 0002:00004300       $unwind$?dtor$0@?0??rank1Update@?$Matrix@_J@@QEAAXAEBV?$Vector@_J@@AEBV?$SpVector@_J@@_J@Z@4HA 0000000180021300     mexOMPMask.obj
 0002:00004300       $unwind$?dtor$5@?0??mult@?$SpMatrix@M@@UEBAXAEBV?$Matrix@M@@AEAV2@_N2MM@Z@4HA 0000000180021300     mexOMPMask.obj
 0002:00004300       $unwind$__DllMainCRTStartup$fin$1 0000000180021300     mexOMPMask.obj
 0002:00004300       $unwind$?dtor$3@?0??mult@?$SpMatrix@M@@UEBAXAEBV?$Matrix@M@@AEAV2@_N2MM@Z@4HA 0000000180021300     mexOMPMask.obj
 0002:00004300       $unwind$_IsNonwritableInCurrentImage$filt$0 0000000180021300     mexOMPMask.obj
 0002:00004300       $unwind$?dtor$0@?0???$?6DU?$char_traits@D@std@@V?$allocator@D@1@@std@@YAAEAV?$basic_ostream@DU?$char_traits@D@std@@@0@AEAV10@AEBV?$basic_string@DU?$char_traits@D@std@@V?$allocator@D@2@@0@@Z@4HA 0000000180021300     mexOMPMask.obj
 0002:00004300       $unwind$?dtor$0@?0???$coreORMP@N@@YAXAEAV?$Vector@N@@00AEAV?$Matrix@N@@1110AEBV?$AbstractMatrix@N@@AEAV?$Vector@_J@@0AEANPEBNPEBH5PEAN@Z@4HA 0000000180021300     mexOMPMask.obj
 0002:00004300       $unwind$?dtor$0@?0???1?$SpMatrix@N@@UEAA@XZ@4HA 0000000180021300     mexOMPMask.obj
 0002:00004300       $unwind$?dtor$4@?0??mult@?$SpMatrix@M@@UEBAXAEBV?$Matrix@M@@AEAV2@_N2MM@Z@4HA 0000000180021300     mexOMPMask.obj
 0002:00004300       $unwind$?dtor$1@?0???1?$SpMatrix@N@@UEAA@XZ@4HA 0000000180021300     mexOMPMask.obj
 0002:00004308       $unwind$??$?6DU?$char_traits@D@std@@V?$allocator@D@1@@std@@YAAEAV?$basic_ostream@DU?$char_traits@D@std@@@0@AEAV10@AEBV?$basic_string@DU?$char_traits@D@std@@V?$allocator@D@2@@0@@Z 0000000180021308     mexOMPMask.obj
 0002:00004318       $stateUnwindMap$??$?6DU?$char_traits@D@std@@V?$allocator@D@1@@std@@YAAEAV?$basic_ostream@DU?$char_traits@D@std@@@0@AEAV10@AEBV?$basic_string@DU?$char_traits@D@std@@V?$allocator@D@2@@0@@Z 0000000180021318     mexOMPMask.obj
 0002:00004330       $tryMap$??$?6DU?$char_traits@D@std@@V?$allocator@D@1@@std@@YAAEAV?$basic_ostream@DU?$char_traits@D@std@@@0@AEAV10@AEBV?$basic_string@DU?$char_traits@D@std@@V?$allocator@D@2@@0@@Z 0000000180021330     mexOMPMask.obj
 0002:00004344       $handlerMap$0$??$?6DU?$char_traits@D@std@@V?$allocator@D@1@@std@@YAAEAV?$basic_ostream@DU?$char_traits@D@std@@@0@AEAV10@AEBV?$basic_string@DU?$char_traits@D@std@@V?$allocator@D@2@@0@@Z 0000000180021344     mexOMPMask.obj
 0002:00004358       $ip2state$??$?6DU?$char_traits@D@std@@V?$allocator@D@1@@std@@YAAEAV?$basic_ostream@DU?$char_traits@D@std@@@0@AEAV10@AEBV?$basic_string@DU?$char_traits@D@std@@V?$allocator@D@2@@0@@Z 0000000180021358     mexOMPMask.obj
 0002:00004398       $unwind$?catch$0@?0???$?6DU?$char_traits@D@std@@V?$allocator@D@1@@std@@YAAEAV?$basic_ostream@DU?$char_traits@D@std@@@0@AEAV10@AEBV?$basic_string@DU?$char_traits@D@std@@V?$allocator@D@2@@0@@Z@4HA 0000000180021398     mexOMPMask.obj
 0002:000043a8       $unwind$??0?$Matrix@_J@@QEAA@_J0@Z 00000001800213a8     mexOMPMask.obj
 0002:000043b8       $stateUnwindMap$??0?$Matrix@_J@@QEAA@_J0@Z 00000001800213b8     mexOMPMask.obj
 0002:000043d0       $ip2state$??0?$Matrix@_J@@QEAA@_J0@Z 00000001800213d0     mexOMPMask.obj
 0002:000043f8       $unwind$??1?$Matrix@_J@@UEAA@XZ 00000001800213f8     mexOMPMask.obj
 0002:00004408       $stateUnwindMap$??1?$Matrix@_J@@UEAA@XZ 0000000180021408     mexOMPMask.obj
 0002:00004420       $ip2state$??1?$Matrix@_J@@UEAA@XZ 0000000180021420     mexOMPMask.obj
 0002:00004448       $unwind$?getData@?$Matrix@_N@@UEBAXAEAV?$Vector@_N@@_J@Z 0000000180021448     mexOMPMask.obj
 0002:00004448       $unwind$?extract_rawCol@?$Matrix@_N@@UEBAX_JPEA_N@Z 0000000180021448     mexOMPMask.obj
 0002:00004448       $unwind$?copyRow@?$Matrix@_N@@UEBAX_JAEAV?$Vector@_N@@@Z 0000000180021448     mexOMPMask.obj
 0002:00004448       $unwind$?copyCol@?$Matrix@_N@@UEBAX_JAEAV?$Vector@_N@@@Z 0000000180021448     mexOMPMask.obj
 0002:00004448       $unwind$?setMatrices@?$ProdMatrix@N@@QEAAXAEBV?$Matrix@N@@_N@Z 0000000180021448     mexOMPMask.obj
 0002:00004448       $unwind$?extract_rawCol@?$Matrix@M@@UEBAX_JPEAM@Z 0000000180021448     mexOMPMask.obj
 0002:00004448       $unwind$?add@?$Vector@_N@@QEAAXAEBV1@_N@Z 0000000180021448     mexOMPMask.obj
 0002:00004448       $unwind$?copyCol@?$Matrix@N@@UEBAX_JAEAV?$Vector@N@@@Z 0000000180021448     mexOMPMask.obj
 0002:00004448       $unwind$?copyRow@?$Matrix@M@@UEBAX_JAEAV?$Vector@M@@@Z 0000000180021448     mexOMPMask.obj
 0002:00004448       $unwind$?getData@?$Matrix@M@@UEBAXAEAV?$Vector@M@@_J@Z 0000000180021448     mexOMPMask.obj
 0002:00004448       $unwind$?message@_Iostream_error_category@std@@UEBA?AV?$basic_string@DU?$char_traits@D@std@@V?$allocator@D@2@@2@H@Z 0000000180021448     mexOMPMask.obj
 0002:00004448       $unwind$?copyCol@?$Matrix@_J@@UEBAX_JAEAV?$Vector@_J@@@Z 0000000180021448     mexOMPMask.obj
 0002:00004448       $unwind$?copyRow@?$Matrix@_J@@UEBAX_JAEAV?$Vector@_J@@@Z 0000000180021448     mexOMPMask.obj
 0002:00004448       $unwind$?getData@?$SpMatrix@N@@UEBAXAEAV?$Vector@N@@_J@Z 0000000180021448     mexOMPMask.obj
 0002:00004448       $unwind$?getData@?$SpMatrix@M@@UEBAXAEAV?$Vector@M@@_J@Z 0000000180021448     mexOMPMask.obj
 0002:00004448       $unwind$?extract_rawCol@?$Matrix@_J@@UEBAX_JPEA_J@Z 0000000180021448     mexOMPMask.obj
 0002:00004448       $unwind$?add@?$Vector@_J@@QEAAXAEBV1@_J@Z 0000000180021448     mexOMPMask.obj
 0002:00004448       $unwind$?copyCol@?$Matrix@M@@UEBAX_JAEAV?$Vector@M@@@Z 0000000180021448     mexOMPMask.obj
 0002:00004448       $unwind$?copy@?$char_traits@D@std@@SAPEADPEADPEBD_K@Z 0000000180021448     mexOMPMask.obj
 0002:00004448       $unwind$?move@?$char_traits@D@std@@SAPEADPEADPEBD_K@Z 0000000180021448     mexOMPMask.obj
 0002:00004448       $unwind$?getData@?$Matrix@_J@@UEBAXAEAV?$Vector@_J@@_J@Z 0000000180021448     mexOMPMask.obj
 0002:00004448       $unwind$?copyRow@?$Matrix@N@@UEBAX_JAEAV?$Vector@N@@@Z 0000000180021448     mexOMPMask.obj
 0002:00004448       $unwind$?setMatrices@?$ProdMatrix@M@@QEAAXAEBV?$Matrix@M@@_N@Z 0000000180021448     mexOMPMask.obj
 0002:00004448       $unwind$?erase@?$basic_string@DU?$char_traits@D@std@@V?$allocator@D@2@@std@@QEAAAEAV12@_K0@Z 0000000180021448     mexOMPMask.obj
 0002:00004448       $unwind$?getData@?$Matrix@N@@UEBAXAEAV?$Vector@N@@_J@Z 0000000180021448     mexOMPMask.obj
 0002:00004448       $unwind$?equivalent@error_category@std@@UEBA_NAEBVerror_code@2@H@Z 0000000180021448     mexOMPMask.obj
 0002:00004448       $unwind$?extract_rawCol@?$Matrix@N@@UEBAX_JPEAN@Z 0000000180021448     mexOMPMask.obj
 0002:00004448       $unwind$??$getScalarStructDef@H@@YAHPEBUmxArray_tag@@PEBDH@Z 0000000180021448     mexOMPMask.obj
 0002:00004448       $unwind$?_Grow@?$basic_string@DU?$char_traits@D@std@@V?$allocator@D@2@@std@@QEAA_N_K_N@Z 0000000180021448     mexOMPMask.obj
 0002:00004450       $unwind$?add_rawCol@?$Matrix@_N@@UEBAX_JPEA_N_N@Z 0000000180021450     mexOMPMask.obj
 0002:00004450       $unwind$?resize@?$Matrix@_N@@QEAAX_J0_N@Z 0000000180021450     mexOMPMask.obj
 0002:00004450       $unwind$??$cblas_copy@N@@YAX_JPEAN010@Z 0000000180021450     mexOMPMask.obj
 0002:00004450       $unwind$??$cblas_copy@M@@YAX_JPEAM010@Z 0000000180021450     mexOMPMask.obj
 0002:00004450       $unwind$?assign@?$basic_string@DU?$char_traits@D@std@@V?$allocator@D@2@@std@@QEAAAEAV12@AEBV12@_K1@Z 0000000180021450     mexOMPMask.obj
 0002:00004450       $unwind$??$cblas_dot@N@@YAN_JPEAN010@Z 0000000180021450     mexOMPMask.obj
 0002:00004450       $unwind$?add_rawCol@?$Matrix@_J@@UEBAX_JPEA_J0@Z 0000000180021450     mexOMPMask.obj
 0002:00004450       $unwind$??$cblas_dot@M@@YAM_JPEAM010@Z 0000000180021450     mexOMPMask.obj
 0002:00004450       $unwind$?resize@?$Matrix@_J@@QEAAX_J0_N@Z 0000000180021450     mexOMPMask.obj
 0002:00004450       $unwind$?resize@?$Matrix@M@@QEAAX_J0_N@Z 0000000180021450     mexOMPMask.obj
 0002:00004450       $unwind$?resize@?$Matrix@N@@QEAAX_J0_N@Z 0000000180021450     mexOMPMask.obj
 0002:00004458       $unwind$?multTrans@?$Matrix@_J@@QEBAXAEBV?$SpVector@_J@@AEAV?$Vector@_J@@_J2@Z 0000000180021458     mexOMPMask.obj
 0002:00004468       $ip2state$?multTrans@?$Matrix@_J@@QEBAXAEBV?$SpVector@_J@@AEAV?$Vector@_J@@_J2@Z 0000000180021468     mexOMPMask.obj
 0002:00004480       $unwind$?mult@?$Matrix@_J@@UEBAXAEBV?$SpVector@_J@@AEAV?$Vector@_J@@_J2@Z 0000000180021480     mexOMPMask.obj
 0002:00004480       $unwind$?addRow@?$Matrix@_N@@QEAAX_JAEBV?$Vector@_N@@_N@Z 0000000180021480     mexOMPMask.obj
 0002:00004488       $unwind$?mult@?$Matrix@N@@UEBAXAEBV1@AEAV1@_N2NN@Z 0000000180021488     mexOMPMask.obj
 0002:00004488       $unwind$?mult@?$Matrix@_J@@UEBAXAEBV1@AEAV1@_N2_J3@Z 0000000180021488     mexOMPMask.obj
 0002:00004488       $unwind$?mult@?$Matrix@M@@UEBAXAEBV1@AEAV1@_N2MM@Z 0000000180021488     mexOMPMask.obj
 0002:00004488       $unwind$?mult@?$Matrix@_N@@UEBAXAEBV1@AEAV1@_N222@Z 0000000180021488     mexOMPMask.obj
 0002:00004490       $unwind$?mult@?$Matrix@_N@@UEBAXAEBV?$SpVector@_N@@AEAV?$Vector@_N@@_N2@Z 0000000180021490     mexOMPMask.obj
 0002:00004490       $unwind$??$convertSpMatrix@N_J@@YAXAEAPEAUmxArray_tag@@_J111PEBNPEB_J3@Z 0000000180021490     mexOMPMask.obj
 0002:00004490       $unwind$?multSwitch@?$Matrix@_N@@UEBAXAEBV1@AEAV1@_N222@Z 0000000180021490     mexOMPMask.obj
 0002:00004490       $unwind$?multSwitch@?$SpMatrix@N@@UEBAXAEBV?$Matrix@N@@AEAV2@_N2NN@Z 0000000180021490     mexOMPMask.obj
 0002:00004490       $unwind$??$convertSpMatrix@M_J@@YAXAEAPEAUmxArray_tag@@_J111PEBMPEB_J3@Z 0000000180021490     mexOMPMask.obj
 0002:00004490       $unwind$?resize@?$SpMatrix@N@@QEAAX_J00@Z 0000000180021490     mexOMPMask.obj
 0002:00004490       $unwind$?multSwitch@?$SpMatrix@M@@UEBAXAEBV?$Matrix@M@@AEAV2@_N2MM@Z 0000000180021490     mexOMPMask.obj
 0002:00004490       $unwind$?multSwitch@?$Matrix@M@@UEBAXAEBV1@AEAV1@_N2MM@Z 0000000180021490     mexOMPMask.obj
 0002:00004490       $unwind$?multSwitch@?$Matrix@N@@UEBAXAEBV1@AEAV1@_N2NN@Z 0000000180021490     mexOMPMask.obj
 0002:00004490       $unwind$?multSwitch@?$Matrix@_J@@UEBAXAEBV1@AEAV1@_N2_J3@Z 0000000180021490     mexOMPMask.obj
 0002:00004490       $unwind$?addRow@?$Matrix@_J@@QEAAX_JAEBV?$Vector@_J@@0@Z 0000000180021490     mexOMPMask.obj
 0002:00004490       $unwind$?resize@?$SpMatrix@M@@QEAAX_J00@Z 0000000180021490     mexOMPMask.obj
 0002:00004498       $unwind$?mult@?$Matrix@_J@@UEBAXAEBV?$SpMatrix@_J@@AEAV1@_N2_J3@Z 0000000180021498     mexOMPMask.obj
 0002:000044a8       $stateUnwindMap$?mult@?$Matrix@_J@@UEBAXAEBV?$SpMatrix@_J@@AEAV1@_N2_J3@Z 00000001800214a8     mexOMPMask.obj
 0002:000044e8       $ip2state$?mult@?$Matrix@_J@@UEBAXAEBV?$SpMatrix@_J@@AEAV1@_N2_J3@Z 00000001800214e8     mexOMPMask.obj
 0002:00004570       $unwind$?XtX@?$Matrix@_N@@UEBAXAEAV1@@Z 0000000180021570     mexOMPMask.obj
 0002:00004570       $unwind$?XtX@?$Matrix@N@@UEBAXAEAV1@@Z 0000000180021570     mexOMPMask.obj
 0002:00004570       $unwind$?XtX@?$Matrix@M@@UEBAXAEAV1@@Z 0000000180021570     mexOMPMask.obj
 0002:00004570       $unwind$?XtX@?$Matrix@_J@@UEBAXAEAV1@@Z 0000000180021570     mexOMPMask.obj
 0002:00004578       $unwind$?norm_2sq_cols@?$Matrix@_J@@UEBAXAEAV?$Vector@_J@@@Z 0000000180021578     mexOMPMask.obj
 0002:00004588       $stateUnwindMap$?norm_2sq_cols@?$Matrix@_J@@UEBAXAEAV?$Vector@_J@@@Z 0000000180021588     mexOMPMask.obj
 0002:00004590       $ip2state$?norm_2sq_cols@?$Matrix@_J@@UEBAXAEAV?$Vector@_J@@@Z 0000000180021590     mexOMPMask.obj
 0002:000045a8       $unwind$?rank1Update@?$Matrix@_J@@QEAAXAEBV?$Vector@_J@@AEBV?$SpVector@_J@@_J@Z 00000001800215a8     mexOMPMask.obj
 0002:000045b8       $stateUnwindMap$?rank1Update@?$Matrix@_J@@QEAAXAEBV?$Vector@_J@@AEBV?$SpVector@_J@@_J@Z 00000001800215b8     mexOMPMask.obj
 0002:000045b8       $stateUnwindMap$?multTrans@?$Matrix@_J@@QEBAXAEBV?$SpVector@_J@@AEAV?$Vector@_J@@_J2@Z 00000001800215b8     mexOMPMask.obj
 0002:000045c0       $ip2state$?rank1Update@?$Matrix@_J@@QEAAXAEBV?$Vector@_J@@AEBV?$SpVector@_J@@_J@Z 00000001800215c0     mexOMPMask.obj
 0002:000045d8       $unwind$??0?$ProdMatrix@N@@QEAA@AEBV?$Matrix@N@@_N@Z 00000001800215d8     mexOMPMask.obj
 0002:000045e8       $stateUnwindMap$??0?$ProdMatrix@N@@QEAA@AEBV?$Matrix@N@@_N@Z 00000001800215e8     mexOMPMask.obj
 0002:000045f8       $ip2state$??0?$ProdMatrix@N@@QEAA@AEBV?$Matrix@N@@_N@Z 00000001800215f8     mexOMPMask.obj
 0002:00004620       $unwind$??1?$ProdMatrix@N@@UEAA@XZ 0000000180021620     mexOMPMask.obj
 0002:00004630       $stateUnwindMap$??1?$ProdMatrix@N@@UEAA@XZ 0000000180021630     mexOMPMask.obj
 0002:00004638       $ip2state$??1?$ProdMatrix@N@@UEAA@XZ 0000000180021638     mexOMPMask.obj
 0002:00004650       $unwind$?copyCol@?$ProdMatrix@N@@UEBAX_JAEAV?$Vector@N@@@Z 0000000180021650     mexOMPMask.obj
 0002:00004660       $ip2state$?copyCol@?$ProdMatrix@N@@UEBAX_JAEAV?$Vector@N@@@Z 0000000180021660     mexOMPMask.obj
 0002:00004678       $unwind$?extract_rawCol@?$ProdMatrix@N@@UEBAX_JPEAN@Z 0000000180021678     mexOMPMask.obj
 0002:00004688       $stateUnwindMap$?extract_rawCol@?$ProdMatrix@N@@UEBAX_JPEAN@Z 0000000180021688     mexOMPMask.obj
 0002:00004688       $stateUnwindMap$?add_rawCol@?$ProdMatrix@N@@UEBAX_JPEANN@Z 0000000180021688     mexOMPMask.obj
 0002:00004698       $ip2state$?extract_rawCol@?$ProdMatrix@N@@UEBAX_JPEAN@Z 0000000180021698     mexOMPMask.obj
 0002:000046c0       $unwind$?add_rawCol@?$ProdMatrix@N@@UEBAX_JPEANN@Z 00000001800216c0     mexOMPMask.obj
 0002:000046d0       $ip2state$?add_rawCol@?$ProdMatrix@N@@UEBAX_JPEANN@Z 00000001800216d0     mexOMPMask.obj
 0002:000046f8       $unwind$?diag@?$ProdMatrix@N@@UEBAXAEAV?$Vector@N@@@Z 00000001800216f8     mexOMPMask.obj
 0002:00004708       $stateUnwindMap$?diag@?$ProdMatrix@N@@UEBAXAEAV?$Vector@N@@@Z 0000000180021708     mexOMPMask.obj
 0002:00004718       $ip2state$?diag@?$ProdMatrix@N@@UEBAXAEAV?$Vector@N@@@Z 0000000180021718     mexOMPMask.obj
 0002:00004740       $unwind$??R?$ProdMatrix@N@@UEBAN_J0@Z 0000000180021740     mexOMPMask.obj
 0002:00004750       $stateUnwindMap$??R?$ProdMatrix@N@@UEBAN_J0@Z 0000000180021750     mexOMPMask.obj
 0002:00004760       $ip2state$??R?$ProdMatrix@N@@UEBAN_J0@Z 0000000180021760     mexOMPMask.obj
 0002:00004788       $unwind$??$coreORMP@N@@YAXAEAV?$Vector@N@@00AEAV?$Matrix@N@@1110AEBV?$AbstractMatrix@N@@AEAV?$Vector@_J@@0AEANPEBNPEBH5PEAN@Z 0000000180021788     mexOMPMask.obj
 0002:00004798       $stateUnwindMap$??$coreORMP@N@@YAXAEAV?$Vector@N@@00AEAV?$Matrix@N@@1110AEBV?$AbstractMatrix@N@@AEAV?$Vector@_J@@0AEANPEBNPEBH5PEAN@Z 0000000180021798     mexOMPMask.obj
 0002:000047a8       $ip2state$??$coreORMP@N@@YAXAEAV?$Vector@N@@00AEAV?$Matrix@N@@1110AEBV?$AbstractMatrix@N@@AEAV?$Vector@_J@@0AEANPEBNPEBH5PEAN@Z 00000001800217a8     mexOMPMask.obj
 0002:000047d0       $unwind$??1?$Vector@M@@UEAA@XZ 00000001800217d0     mexOMPMask.obj
 0002:000047d0       $unwind$?fmax@?$Vector@M@@QEBA_JXZ 00000001800217d0     mexOMPMask.obj
 0002:000047d0       $unwind$??1?$SpVector@M@@QEAA@XZ 00000001800217d0     mexOMPMask.obj
 0002:000047d0       $unwind$??0?$ProdMatrix@M@@QEAA@XZ 00000001800217d0     mexOMPMask.obj
 0002:000047d0       $unwind$??0?$_Wrap_alloc@V?$allocator@D@std@@@std@@QEAA@XZ 00000001800217d0     mexOMPMask.obj
 0002:000047d0       $unwind$?max_size@?$allocator_traits@V?$allocator@D@std@@@std@@SA_KAEBV?$allocator@D@2@@Z 00000001800217d0     mexOMPMask.obj
 0002:000047d0       $unwind$?setZeros@?$Vector@N@@QEAAXXZ 00000001800217d0     mexOMPMask.obj
 0002:000047d0       $unwind$??0?$Matrix@M@@QEAA@XZ 00000001800217d0     mexOMPMask.obj
 0002:000047d0       $unwind$?fmax@?$Vector@N@@QEBA_JXZ 00000001800217d0     mexOMPMask.obj
 0002:000047d0       $unwind$??1?$Vector@N@@UEAA@XZ 00000001800217d0     mexOMPMask.obj
 0002:000047d0       $unwind$?setZeros@?$Matrix@N@@QEAAXXZ 00000001800217d0     mexOMPMask.obj
 0002:000047d0       $unwind$??0?$Matrix@N@@QEAA@XZ 00000001800217d0     mexOMPMask.obj
 0002:000047d0       $unwind$??1?$SpVector@_N@@QEAA@XZ 00000001800217d0     mexOMPMask.obj
 0002:000047d0       $unwind$?setZeros@?$Vector@M@@QEAAXXZ 00000001800217d0     mexOMPMask.obj
 0002:000047d0       $unwind$??1?$SpVector@N@@QEAA@XZ 00000001800217d0     mexOMPMask.obj
 0002:000047d0       $unwind$?setZeros@?$Matrix@_J@@QEAAXXZ 00000001800217d0     mexOMPMask.obj
 0002:000047d0       $unwind$?c_str@?$basic_string@DU?$char_traits@D@std@@V?$allocator@D@2@@std@@QEBAPEBDXZ 00000001800217d0     mexOMPMask.obj
 0002:000047d0       $unwind$??0?$SpMatrix@N@@QEAA@XZ 00000001800217d0     mexOMPMask.obj
 0002:000047d0       $unwind$??E?$_List_const_iterator@V?$_List_val@U?$_List_simple_types@_J@std@@@std@@@std@@QEAAAEAV01@XZ 00000001800217d0     mexOMPMask.obj
 0002:000047d0       $unwind$??1?$Vector@H@@UEAA@XZ 00000001800217d0     mexOMPMask.obj
 0002:000047d0       $unwind$??1sentry@?$basic_ostream@DU?$char_traits@D@std@@@std@@QEAA@XZ 00000001800217d0     mexOMPMask.obj
 0002:000047d0       $unwind$??D?$_List_const_iterator@V?$_List_val@U?$_List_simple_types@_J@std@@@std@@@std@@QEBAAEB_JXZ 00000001800217d0     mexOMPMask.obj
 0002:000047d0       $unwind$??0?$ProdMatrix@N@@QEAA@XZ 00000001800217d0     mexOMPMask.obj
 0002:000047d0       $unwind$?_Xlen@?$basic_string@DU?$char_traits@D@std@@V?$allocator@D@2@@std@@QEBAXXZ 00000001800217d0     mexOMPMask.obj
 0002:000047d0       $unwind$?max@?$Vector@H@@QEBA_JXZ 00000001800217d0     mexOMPMask.obj
 0002:000047d0       $unwind$??0?$SpMatrix@M@@QEAA@XZ 00000001800217d0     mexOMPMask.obj
 0002:000047d0       $unwind$?setZeros@?$Vector@_J@@QEAAXXZ 00000001800217d0     mexOMPMask.obj
 0002:000047d0       $unwind$?maxval@?$Vector@H@@QEBAHXZ 00000001800217d0     mexOMPMask.obj
 0002:000047d0       $unwind$?_Xran@?$basic_string@DU?$char_traits@D@std@@V?$allocator@D@2@@std@@QEBAXXZ 00000001800217d0     mexOMPMask.obj
 0002:000047d0       $unwind$??1?$SpVector@_J@@QEAA@XZ 00000001800217d0     mexOMPMask.obj
 0002:000047d0       $unwind$?max_size@?$_Wrap_alloc@V?$allocator@D@std@@@std@@QEBA_KXZ 00000001800217d0     mexOMPMask.obj
 0002:000047d0       $unwind$??1?$Vector@_J@@UEAA@XZ 00000001800217d0     mexOMPMask.obj
 0002:000047d0       $unwind$?setZeros@?$Matrix@_N@@QEAAXXZ 00000001800217d0     mexOMPMask.obj
 0002:000047d0       $unwind$??1_System_error_category@std@@UEAA@XZ 00000001800217d0     mexOMPMask.obj
 0002:000047d0       $unwind$??0_Generic_error_category@std@@QEAA@XZ 00000001800217d0     mexOMPMask.obj
 0002:000047d0       $unwind$??0_System_error_category@std@@QEAA@XZ 00000001800217d0     mexOMPMask.obj
 0002:000047d0       $unwind$?setZeros@?$Matrix@M@@QEAAXXZ 00000001800217d0     mexOMPMask.obj
 0002:000047d0       $unwind$??1_Iostream_error_category@std@@UEAA@XZ 00000001800217d0     mexOMPMask.obj
 0002:000047d0       $unwind$??1_Generic_error_category@std@@UEAA@XZ 00000001800217d0     mexOMPMask.obj
 0002:000047d0       $unwind$??1?$Vector@_N@@UEAA@XZ 00000001800217d0     mexOMPMask.obj
 0002:000047d0       $unwind$??0_Iostream_error_category@std@@QEAA@XZ 00000001800217d0     mexOMPMask.obj
 0002:000047d0       $unwind$?setZeros@?$Vector@_N@@QEAAXXZ 00000001800217d0     mexOMPMask.obj
 0002:000047d8       $unwind$??0?$ProdMatrix@M@@QEAA@AEBV?$Matrix@M@@_N@Z 00000001800217d8     mexOMPMask.obj
 0002:000047e8       $stateUnwindMap$??0?$ProdMatrix@M@@QEAA@AEBV?$Matrix@M@@_N@Z 00000001800217e8     mexOMPMask.obj
 0002:000047f8       $ip2state$??0?$ProdMatrix@M@@QEAA@AEBV?$Matrix@M@@_N@Z 00000001800217f8     mexOMPMask.obj
 0002:00004820       $unwind$??1?$ProdMatrix@M@@UEAA@XZ 0000000180021820     mexOMPMask.obj
 0002:00004830       $stateUnwindMap$??1?$ProdMatrix@M@@UEAA@XZ 0000000180021830     mexOMPMask.obj
 0002:00004838       $ip2state$??1?$ProdMatrix@M@@UEAA@XZ 0000000180021838     mexOMPMask.obj
 0002:00004850       $unwind$?copyCol@?$ProdMatrix@M@@UEBAX_JAEAV?$Vector@M@@@Z 0000000180021850     mexOMPMask.obj
 0002:00004860       $ip2state$?copyCol@?$ProdMatrix@M@@UEBAX_JAEAV?$Vector@M@@@Z 0000000180021860     mexOMPMask.obj
 0002:00004878       $unwind$?extract_rawCol@?$ProdMatrix@M@@UEBAX_JPEAM@Z 0000000180021878     mexOMPMask.obj
 0002:00004888       $ip2state$?extract_rawCol@?$ProdMatrix@M@@UEBAX_JPEAM@Z 0000000180021888     mexOMPMask.obj
 0002:000048b0       $unwind$?add_rawCol@?$ProdMatrix@M@@UEBAX_JPEAMM@Z 00000001800218b0     mexOMPMask.obj
 0002:000048c0       $stateUnwindMap$?extract_rawCol@?$ProdMatrix@M@@UEBAX_JPEAM@Z 00000001800218c0     mexOMPMask.obj
 0002:000048c0       $stateUnwindMap$?add_rawCol@?$ProdMatrix@M@@UEBAX_JPEAMM@Z 00000001800218c0     mexOMPMask.obj
 0002:000048d0       $ip2state$?add_rawCol@?$ProdMatrix@M@@UEBAX_JPEAMM@Z 00000001800218d0     mexOMPMask.obj
 0002:000048f8       $unwind$?diag@?$ProdMatrix@M@@UEBAXAEAV?$Vector@M@@@Z 00000001800218f8     mexOMPMask.obj
 0002:00004908       $stateUnwindMap$?diag@?$ProdMatrix@M@@UEBAXAEAV?$Vector@M@@@Z 0000000180021908     mexOMPMask.obj
 0002:00004918       $ip2state$?diag@?$ProdMatrix@M@@UEBAXAEAV?$Vector@M@@@Z 0000000180021918     mexOMPMask.obj
 0002:00004940       $unwind$??R?$ProdMatrix@M@@UEBAM_J0@Z 0000000180021940     mexOMPMask.obj
 0002:00004950       $stateUnwindMap$??R?$ProdMatrix@M@@UEBAM_J0@Z 0000000180021950     mexOMPMask.obj
 0002:00004960       $ip2state$??R?$ProdMatrix@M@@UEBAM_J0@Z 0000000180021960     mexOMPMask.obj
 0002:00004988       $unwind$??$coreORMP@M@@YAXAEAV?$Vector@M@@00AEAV?$Matrix@M@@1110AEBV?$AbstractMatrix@M@@AEAV?$Vector@_J@@0AEAMPEBMPEBH5PEAM@Z 0000000180021988     mexOMPMask.obj
 0002:00004998       $stateUnwindMap$??$coreORMP@M@@YAXAEAV?$Vector@M@@00AEAV?$Matrix@M@@1110AEBV?$AbstractMatrix@M@@AEAV?$Vector@_J@@0AEAMPEBMPEBH5PEAM@Z 0000000180021998     mexOMPMask.obj
 0002:000049a8       $ip2state$??$coreORMP@M@@YAXAEAV?$Vector@M@@00AEAV?$Matrix@M@@1110AEBV?$AbstractMatrix@M@@AEAV?$Vector@_J@@0AEAMPEBMPEBH5PEAM@Z 00000001800219a8     mexOMPMask.obj
 0002:000049d0       $unwind$??$construct@PEADAEAPEAD@?$allocator@D@std@@QEAAXPEAPEADAEAPEAD@Z 00000001800219d0     mexOMPMask.obj
 0002:000049e0       $stateUnwindMap$??$construct@PEADAEAPEAD@?$allocator@D@std@@QEAAXPEAPEADAEAPEAD@Z 00000001800219e0     mexOMPMask.obj
 0002:000049e8       $ip2state$??$construct@PEADAEAPEAD@?$allocator@D@std@@QEAAXPEAPEADAEAPEAD@Z 00000001800219e8     mexOMPMask.obj
 0002:00004a00       $unwind$??$vSqr@M@@YAX_JPEAM1@Z 0000000180021a00     mexOMPMask.obj
 0002:00004a00       $unwind$??$vSqr@N@@YAX_JPEAN1@Z 0000000180021a00     mexOMPMask.obj
 0002:00004a08       $unwind$??_L@YAXPEAX_KHP6AX0@Z2@Z 0000000180021a08     MSVCRT:ehvecctr.obj
 0002:00004a34       $unwind$??_M@YAXPEAX_KHP6AX0@Z@Z 0000000180021a34     MSVCRT:ehvecdtr.obj
 0002:00004a5c       $unwind$?__ArrayUnwind@@YAXPEAX_KHP6AX0@Z@Z 0000000180021a5c     MSVCRT:ehvecdtr.obj
 0002:00004a84       $unwind$_onexit            0000000180021a84     MSVCRT:atonexit.obj
 0002:00004aa4       $unwind$_CRT_INIT          0000000180021aa4     MSVCRT:crtdll.obj
 0002:00004ac0       $unwind$pre_c_init         0000000180021ac0     MSVCRT:crtdll.obj
 0002:00004ac0       $unwind$__atonexitinit     0000000180021ac0     MSVCRT:crtdll.obj
 0002:00004ac8       $unwind$__DllMainCRTStartup 0000000180021ac8     MSVCRT:crtdll.obj
 0002:00004b04       $unwind$??_Etype_info@@UEAAPEAXI@Z 0000000180021b04     MSVCRT:crtdll.obj
 0002:00004b04       $unwind$_DllMainCRTStartup 0000000180021b04     MSVCRT:crtdll.obj
 0002:00004b14       $unwind$_IsNonwritableInCurrentImage 0000000180021b14     MSVCRT:pesect.obj
 0002:00004b38       $unwind$__security_init_cookie 0000000180021b38     MSVCRT:gs_support.obj
 0002:00004b44       $unwind$_RTC_Initialize    0000000180021b44     MSVCRT:initsect.obj
 0002:00004b44       $unwind$_RTC_Terminate     0000000180021b44     MSVCRT:initsect.obj
 0002:00004fe8       .idata$6                   0000000180021fe8     libmx:libmx.dll
 0002:0000501e       .idata$6                   000000018002201e     libmex:libmex.dll
 0002:00005044       .idata$6                   0000000180022044     kernel32:KERNEL32.dll
 0002:000050e6       .idata$6                   00000001800220e6     libmwblas:libmwblas.dll
 0002:00005690       .idata$6                   0000000180022690     msvcprt:MSVCP110.dll
 0002:000057ae       .idata$6                   00000001800227ae     MSVCRT:MSVCR110.dll
 0002:00005920       .edata                     0000000180022920     templib.exp
 0002:00005948       rgpv                       0000000180022948     templib.exp
 0002:0000594c       rgszName                   000000018002294c     templib.exp
 0002:00005950       rgwOrd                     0000000180022950     templib.exp
 0002:00005952       szName                     0000000180022952     templib.exp
 0002:00005964       $N00001                    0000000180022964     templib.exp
 0003:00000003       lower                      0000000180023003     mexOMPMask.obj
 0003:00000006       upper                      0000000180023006     mexOMPMask.obj
 0003:00000007       incr                       0000000180023007     mexOMPMask.obj
 0003:0000000a       decr                       000000018002300a     mexOMPMask.obj
 0003:0000000b       no                         000000018002300b     mexOMPMask.obj
 0003:0000000e       reduced                    000000018002300e     mexOMPMask.obj
 0003:0000000f       allV                       000000018002300f     mexOMPMask.obj
 0003:00000010       low                        0000000180023010     mexOMPMask.obj
 0003:00000011       nonUnit                    0000000180023011     mexOMPMask.obj
 0003:00000530       seed                       0000000180023530     mexOMPMask.obj
 0003:00000538       info                       0000000180023538     mexOMPMask.obj
 0003:00000540       allocator_arg              0000000180023540     mexOMPMask.obj
 0003:00000541       piecewise_construct        0000000180023541     mexOMPMask.obj
 0003:00000560       ?tzflag@?1??gettimeofday@@YAHPEAUtimeval@@PEAUtimezone@@@Z@4HA 0000000180023560     mexOMPMask.obj
 0003:00000578       __proc_attached            0000000180023578     MSVCRT:crtdll.obj
 0004:00000000       $pdata$mexFunction         0000000180024000     mexOMPMask.obj
 0004:0000000c       $pdata$?gettimeofday@@YAHPEAUtimeval@@PEAUtimezone@@@Z 000000018002400c     mexOMPMask.obj
 0004:00000018       $pdata$?init_omp@@YAHH@Z   0000000180024018     mexOMPMask.obj
 0004:00000024       $pdata$?cblas_transpose@@YAPEADW4CBLAS_TRANSPOSE@@@Z 0000000180024024     mexOMPMask.obj
 0004:00000030       $pdata$?cblas_uplo@@YAPEADW4CBLAS_UPLO@@@Z 0000000180024030     mexOMPMask.obj
 0004:0000003c       $pdata$?cblas_diag@@YAPEADW4CBLAS_DIAG@@@Z 000000018002403c     mexOMPMask.obj
 0004:00000048       $pdata$?cblas_side@@YAPEADW4CBLAS_SIDE@@@Z 0000000180024048     mexOMPMask.obj
 0004:00000054       $pdata$??0Timer@@QEAA@XZ   0000000180024054     mexOMPMask.obj
 0004:00000060       $pdata$??1Timer@@QEAA@XZ   0000000180024060     mexOMPMask.obj
 0004:0000006c       $pdata$?checkSize@@YA_NPEBUmxArray_tag@@HH@Z 000000018002406c     mexOMPMask.obj
 0004:00000078       $pdata$?super_flush@@YAXAEAV?$basic_ostream@DU?$char_traits@D@std@@@std@@@Z 0000000180024078     mexOMPMask.obj
 0004:00000084       $pdata$??$sort@N_J@@YAXPEA_JPEAN_J2@Z 0000000180024084     mexOMPMask.obj
 0004:00000090       $pdata$??$sort@M_J@@YAXPEA_JPEAM_J2@Z 0000000180024090     mexOMPMask.obj
 0004:0000009c       $pdata$??$?6DU?$char_traits@D@std@@V?$allocator@D@1@@std@@YAAEAV?$basic_ostream@DU?$char_traits@D@std@@@0@AEAV10@AEBV?$basic_string@DU?$char_traits@D@std@@V?$allocator@D@2@@0@@Z 000000018002409c     mexOMPMask.obj
 0004:000000a8       $pdata$??$?6U?$char_traits@D@std@@@std@@YAAEAV?$basic_ostream@DU?$char_traits@D@std@@@0@AEAV10@PEBD@Z 00000001800240a8     mexOMPMask.obj
 0004:000000b4       $pdata$??$_Allocate@D@std@@YAPEAD_KPEAD@Z 00000001800240b4     mexOMPMask.obj
 0004:000000c0       $pdata$??$abs@M@@YAMM@Z    00000001800240c0     mexOMPMask.obj
 0004:000000cc       $pdata$??$abs@N@@YANN@Z    00000001800240cc     mexOMPMask.obj
 0004:000000d8       $pdata$??$callFunction@M@@YAXQEAPEAUmxArray_tag@@QEAPEBU0@H@Z 00000001800240d8     mexOMPMask.obj
 0004:000000e4       $pdata$??$callFunction@N@@YAXQEAPEAUmxArray_tag@@QEAPEBU0@H@Z 00000001800240e4     mexOMPMask.obj
 0004:000000f0       $pdata$??$cblas_axpy@M@@YAX_JMPEAM010@Z 00000001800240f0     mexOMPMask.obj
 0004:000000fc       $pdata$??$cblas_axpy@N@@YAX_JNPEAN010@Z 00000001800240fc     mexOMPMask.obj
 0004:00000108       $pdata$??$cblas_axpy@_J@@YAX_J0PEA_J010@Z 0000000180024108     mexOMPMask.obj
 0004:00000114       $pdata$??$cblas_axpy@_N@@YAX_J_NPEA_N020@Z 0000000180024114     mexOMPMask.obj
 0004:00000120       $pdata$??$cblas_copy@M@@YAX_JPEAM010@Z 0000000180024120     mexOMPMask.obj
 0004:0000012c       $pdata$??$cblas_copy@N@@YAX_JPEAN010@Z 000000018002412c     mexOMPMask.obj
 0004:00000138       $pdata$??$cblas_copy@_J@@YAX_JPEA_J010@Z 0000000180024138     mexOMPMask.obj
 0004:00000144       $pdata$??$cblas_copy@_N@@YAX_JPEA_N010@Z 0000000180024144     mexOMPMask.obj
 0004:00000150       $pdata$??$cblas_dot@M@@YAM_JPEAM010@Z 0000000180024150     mexOMPMask.obj
 0004:0000015c       $pdata$??$cblas_dot@N@@YAN_JPEAN010@Z 000000018002415c     mexOMPMask.obj
 0004:00000168       $pdata$??$cblas_dot@_J@@YA_J_JPEA_J010@Z 0000000180024168     mexOMPMask.obj
 0004:00000174       $pdata$??$cblas_gemm@M@@YAXW4CBLAS_ORDER@@W4CBLAS_TRANSPOSE@@1_J22MPEAM232M32@Z 0000000180024174     mexOMPMask.obj
 0004:00000180       $pdata$??$cblas_gemm@N@@YAXW4CBLAS_ORDER@@W4CBLAS_TRANSPOSE@@1_J22NPEAN232N32@Z 0000000180024180     mexOMPMask.obj
 0004:0000018c       $pdata$??$cblas_gemv@M@@YAXW4CBLAS_ORDER@@W4CBLAS_TRANSPOSE@@_J2MPEAM232M32@Z 000000018002418c     mexOMPMask.obj
 0004:00000198       $pdata$??$cblas_gemv@N@@YAXW4CBLAS_ORDER@@W4CBLAS_TRANSPOSE@@_J2NPEAN232N32@Z 0000000180024198     mexOMPMask.obj
 0004:000001a4       $pdata$??$cblas_iamax@M@@YA_J_JPEAM0@Z 00000001800241a4     mexOMPMask.obj
 0004:000001b0       $pdata$??$cblas_iamax@N@@YA_J_JPEAN0@Z 00000001800241b0     mexOMPMask.obj
 0004:000001bc       $pdata$??$cblas_scal@M@@YAX_JMPEAM0@Z 00000001800241bc     mexOMPMask.obj
 0004:000001c8       $pdata$??$cblas_scal@N@@YAX_JNPEAN0@Z 00000001800241c8     mexOMPMask.obj
 0004:000001d4       $pdata$??$cblas_scal@_J@@YAX_J0PEA_J0@Z 00000001800241d4     mexOMPMask.obj
 0004:000001e0       $pdata$??$cblas_syrk@M@@YAXW4CBLAS_ORDER@@W4CBLAS_UPLO@@W4CBLAS_TRANSPOSE@@_J3MPEAM3M43@Z 00000001800241e0     mexOMPMask.obj
 0004:000001ec       $pdata$??$cblas_syrk@N@@YAXW4CBLAS_ORDER@@W4CBLAS_UPLO@@W4CBLAS_TRANSPOSE@@_J3NPEAN3N43@Z 00000001800241ec     mexOMPMask.obj
 0004:000001f8       $pdata$??$cblas_trmv@M@@YAXW4CBLAS_ORDER@@W4CBLAS_UPLO@@W4CBLAS_TRANSPOSE@@W4CBLAS_DIAG@@_JPEAM454@Z 00000001800241f8     mexOMPMask.obj
 0004:00000204       $pdata$??$cblas_trmv@N@@YAXW4CBLAS_ORDER@@W4CBLAS_UPLO@@W4CBLAS_TRANSPOSE@@W4CBLAS_DIAG@@_JPEAN454@Z 0000000180024204     mexOMPMask.obj
 0004:00000210       $pdata$??$construct@PEADAEAPEAD@?$_Wrap_alloc@V?$allocator@D@std@@@std@@QEAAXPEAPEADAEAPEAD@Z 0000000180024210     mexOMPMask.obj
 0004:0000021c       $pdata$??$construct@PEADAEAPEAD@?$allocator@D@std@@QEAAXPEAPEADAEAPEAD@Z 000000018002421c     mexOMPMask.obj
 0004:00000228       $pdata$??$construct@PEADAEAPEAD@?$allocator_traits@V?$allocator@D@std@@@std@@SAXAEAV?$allocator@D@1@PEAPEADAEAPEAD@Z 0000000180024228     mexOMPMask.obj
 0004:00000234       $pdata$??$convertSpMatrix@M_J@@YAXAEAPEAUmxArray_tag@@_J111PEBMPEB_J3@Z 0000000180024234     mexOMPMask.obj
 0004:00000240       $pdata$??$convertSpMatrix@N_J@@YAXAEAPEAUmxArray_tag@@_J111PEBNPEB_J3@Z 0000000180024240     mexOMPMask.obj
 0004:0000024c       $pdata$??$coreORMP@M@@YAXAEAV?$Vector@M@@00AEAV?$Matrix@M@@1110AEBV?$AbstractMatrix@M@@AEAV?$Vector@_J@@0AEAMPEBMPEBH5PEAM@Z 000000018002424c     mexOMPMask.obj
 0004:00000258       $pdata$??$coreORMP@N@@YAXAEAV?$Vector@N@@00AEAV?$Matrix@N@@1110AEBV?$AbstractMatrix@N@@AEAV?$Vector@_J@@0AEANPEBNPEBH5PEAN@Z 0000000180024258     mexOMPMask.obj
 0004:00000264       $pdata$??$createMatrix@M@@YAPEAUmxArray_tag@@HH@Z 0000000180024264     mexOMPMask.obj
 0004:00000270       $pdata$??$createMatrix@N@@YAPEAUmxArray_tag@@HH@Z 0000000180024270     mexOMPMask.obj
 0004:0000027c       $pdata$??$destroy@PEAD@?$_Wrap_alloc@V?$allocator@D@std@@@std@@QEAAXPEAPEAD@Z 000000018002427c     mexOMPMask.obj
 0004:00000288       $pdata$??$destroy@PEAD@?$allocator_traits@V?$allocator@D@std@@@std@@SAXAEAV?$allocator@D@1@PEAPEAD@Z 0000000180024288     mexOMPMask.obj
 0004:00000294       $pdata$??$getScalarStructDef@H@@YAHPEBUmxArray_tag@@PEBDH@Z 0000000180024294     mexOMPMask.obj
 0004:000002a0       $pdata$??$mexCheckType@H@@YA_NPEBUmxArray_tag@@@Z 00000001800242a0     mexOMPMask.obj
 0004:000002ac       $pdata$??$mexCheckType@M@@YA_NPEBUmxArray_tag@@@Z 00000001800242ac     mexOMPMask.obj
 0004:000002b8       $pdata$??$mexCheckType@N@@YA_NPEBUmxArray_tag@@@Z 00000001800242b8     mexOMPMask.obj
 0004:000002c4       $pdata$??$mexCheckType@_N@@YA_NPEBUmxArray_tag@@@Z 00000001800242c4     mexOMPMask.obj
 0004:000002d0       $pdata$??$omp_mask@M@@YAXAEBV?$Matrix@M@@0AEAV?$SpMatrix@M@@AEBV?$Matrix@_N@@PEBHPEBM4_N55HPEAV0@@Z 00000001800242d0     mexOMPMask.obj
 0004:000002dc       $pdata$??$omp_mask@N@@YAXAEBV?$Matrix@N@@0AEAV?$SpMatrix@N@@AEBV?$Matrix@_N@@PEBHPEBN4_N55HPEAV0@@Z 00000001800242dc     mexOMPMask.obj
 0004:000002e8       $pdata$??$vDiv@M@@YAX_JPEAM11@Z 00000001800242e8     mexOMPMask.obj
 0004:000002f4       $pdata$??$vDiv@N@@YAX_JPEAN11@Z 00000001800242f4     mexOMPMask.obj
 0004:00000300       $pdata$??$vSqr@M@@YAX_JPEAM1@Z 0000000180024300     mexOMPMask.obj
 0004:0000030c       $pdata$??$vSqr@N@@YAX_JPEAN1@Z 000000018002430c     mexOMPMask.obj
 0004:00000318       $pdata$??$vSub@M@@YAX_JPEAM11@Z 0000000180024318     mexOMPMask.obj
 0004:00000324       $pdata$??$vSub@N@@YAX_JPEAN11@Z 0000000180024324     mexOMPMask.obj
 0004:00000330       $pdata$??0?$Matrix@M@@QEAA@PEAM_J1@Z 0000000180024330     mexOMPMask.obj
 0004:0000033c       $pdata$??0?$Matrix@M@@QEAA@XZ 000000018002433c     mexOMPMask.obj
 0004:00000348       $pdata$??0?$Matrix@M@@QEAA@_J0@Z 0000000180024348     mexOMPMask.obj
 0004:00000354       $pdata$??0?$Matrix@N@@QEAA@PEAN_J1@Z 0000000180024354     mexOMPMask.obj
 0004:00000360       $pdata$??0?$Matrix@N@@QEAA@XZ 0000000180024360     mexOMPMask.obj
 0004:0000036c       $pdata$??0?$Matrix@N@@QEAA@_J0@Z 000000018002436c     mexOMPMask.obj
 0004:00000378       $pdata$??0?$Matrix@_J@@QEAA@_J0@Z 0000000180024378     mexOMPMask.obj
 0004:00000384       $pdata$??0?$Matrix@_N@@QEAA@PEA_N_J1@Z 0000000180024384     mexOMPMask.obj
 0004:00000390       $pdata$??0?$ProdMatrix@M@@QEAA@AEBV?$Matrix@M@@_N@Z 0000000180024390     mexOMPMask.obj
 0004:0000039c       $pdata$??0?$ProdMatrix@M@@QEAA@XZ 000000018002439c     mexOMPMask.obj
 0004:000003a8       $pdata$??0?$ProdMatrix@N@@QEAA@AEBV?$Matrix@N@@_N@Z 00000001800243a8     mexOMPMask.obj
 0004:000003b4       $pdata$??0?$ProdMatrix@N@@QEAA@XZ 00000001800243b4     mexOMPMask.obj
 0004:000003c0       $pdata$??0?$SpMatrix@M@@QEAA@XZ 00000001800243c0     mexOMPMask.obj
 0004:000003cc       $pdata$??0?$SpMatrix@N@@QEAA@XZ 00000001800243cc     mexOMPMask.obj
 0004:000003d8       $pdata$??0?$Vector@M@@QEAA@_J@Z 00000001800243d8     mexOMPMask.obj
 0004:000003e4       $pdata$??0?$Vector@N@@QEAA@_J@Z 00000001800243e4     mexOMPMask.obj
 0004:000003f0       $pdata$??0?$Vector@_J@@QEAA@_J@Z 00000001800243f0     mexOMPMask.obj
 0004:000003fc       $pdata$??0?$Vector@_N@@QEAA@_J@Z 00000001800243fc     mexOMPMask.obj
 0004:00000408       $pdata$??0?$_List_const_iterator@V?$_List_val@U?$_List_simple_types@_J@std@@@std@@@std@@QEAA@PEAU?$_List_node@_JPEAX@1@PEBV?$_List_val@U?$_List_simple_types@_J@std@@@1@@Z 0000000180024408     mexOMPMask.obj
 0004:00000414       $pdata$??0?$_List_unchecked_const_iterator@V?$_List_val@U?$_List_simple_types@_J@std@@@std@@U_Iterator_base0@2@@std@@QEAA@PEAU?$_List_node@_JPEAX@1@PEBV?$_List_val@U?$_List_simple_types@_J@std@@@1@@Z 0000000180024414     mexOMPMask.obj
 0004:00000420       $pdata$??0?$_String_alloc@$0A@U?$_String_base_types@DV?$allocator@D@std@@@std@@@std@@QEAA@AEBV?$allocator@D@1@@Z 0000000180024420     mexOMPMask.obj
 0004:0000042c       $pdata$??0?$_Wrap_alloc@V?$allocator@D@std@@@std@@QEAA@XZ 000000018002442c     mexOMPMask.obj
 0004:00000438       $pdata$??0?$basic_string@DU?$char_traits@D@std@@V?$allocator@D@2@@std@@QEAA@PEBD@Z 0000000180024438     mexOMPMask.obj
 0004:00000444       $pdata$??0_Generic_error_category@std@@QEAA@XZ 0000000180024444     mexOMPMask.obj
 0004:00000450       $pdata$??0_Iostream_error_category@std@@QEAA@XZ 0000000180024450     mexOMPMask.obj
 0004:0000045c       $pdata$??0_Sentry_base@?$basic_ostream@DU?$char_traits@D@std@@@std@@QEAA@AEAV12@@Z 000000018002445c     mexOMPMask.obj
 0004:00000468       $pdata$??0_System_error_category@std@@QEAA@XZ 0000000180024468     mexOMPMask.obj
 0004:00000474       $pdata$??0sentry@?$basic_ostream@DU?$char_traits@D@std@@@std@@QEAA@AEAV12@@Z 0000000180024474     mexOMPMask.obj
 0004:00000480       $pdata$??1?$Matrix@M@@UEAA@XZ 0000000180024480     mexOMPMask.obj
 0004:0000048c       $pdata$??1?$Matrix@N@@UEAA@XZ 000000018002448c     mexOMPMask.obj
 0004:00000498       $pdata$??1?$Matrix@_J@@UEAA@XZ 0000000180024498     mexOMPMask.obj
 0004:000004a4       $pdata$??1?$Matrix@_N@@UEAA@XZ 00000001800244a4     mexOMPMask.obj
 0004:000004b0       $pdata$??1?$ProdMatrix@M@@UEAA@XZ 00000001800244b0     mexOMPMask.obj
 0004:000004bc       $pdata$??1?$ProdMatrix@N@@UEAA@XZ 00000001800244bc     mexOMPMask.obj
 0004:000004c8       $pdata$??1?$SpMatrix@M@@UEAA@XZ 00000001800244c8     mexOMPMask.obj
 0004:000004d4       $pdata$??1?$SpMatrix@N@@UEAA@XZ 00000001800244d4     mexOMPMask.obj
 0004:000004e0       $pdata$??1?$SpVector@N@@QEAA@XZ 00000001800244e0     mexOMPMask.obj
 0004:000004e0       $pdata$??1?$SpVector@_N@@QEAA@XZ 00000001800244e0     mexOMPMask.obj
 0004:000004e0       $pdata$??1?$SpVector@M@@QEAA@XZ 00000001800244e0     mexOMPMask.obj
 0004:000004e0       $pdata$??1?$SpVector@_J@@QEAA@XZ 00000001800244e0     mexOMPMask.obj
 0004:000004ec       $pdata$??1?$Vector@H@@UEAA@XZ 00000001800244ec     mexOMPMask.obj
 0004:000004f8       $pdata$??1?$Vector@M@@UEAA@XZ 00000001800244f8     mexOMPMask.obj
 0004:00000504       $pdata$??1?$Vector@N@@UEAA@XZ 0000000180024504     mexOMPMask.obj
 0004:00000510       $pdata$??1?$Vector@_J@@UEAA@XZ 0000000180024510     mexOMPMask.obj
 0004:0000051c       $pdata$??1?$Vector@_N@@UEAA@XZ 000000018002451c     mexOMPMask.obj
 0004:00000528       $pdata$??1_Generic_error_category@std@@UEAA@XZ 0000000180024528     mexOMPMask.obj
 0004:00000534       $pdata$??1_Sentry_base@?$basic_ostream@DU?$char_traits@D@std@@@std@@QEAA@XZ 0000000180024534     mexOMPMask.obj
 0004:00000540       $pdata$??1_Iostream_error_category@std@@UEAA@XZ 0000000180024540     mexOMPMask.obj
 0004:00000540       $pdata$??1_System_error_category@std@@UEAA@XZ 0000000180024540     mexOMPMask.obj
 0004:0000054c       $pdata$??1sentry@?$basic_ostream@DU?$char_traits@D@std@@@std@@QEAA@XZ 000000018002454c     mexOMPMask.obj
 0004:00000558       $pdata$??8?$_List_const_iterator@V?$_List_val@U?$_List_simple_types@_J@std@@@std@@@std@@QEBA_NAEBV01@@Z 0000000180024558     mexOMPMask.obj
 0004:00000564       $pdata$??8error_category@std@@QEBA_NAEBV01@@Z 0000000180024564     mexOMPMask.obj
 0004:00000570       $pdata$??8error_condition@std@@QEBA_NAEBV01@@Z 0000000180024570     mexOMPMask.obj
 0004:0000057c       $pdata$??9?$_List_const_iterator@V?$_List_val@U?$_List_simple_types@_J@std@@@std@@@std@@QEBA_NAEBV01@@Z 000000018002457c     mexOMPMask.obj
 0004:00000588       $pdata$??A?$SpMatrix@M@@UEBAM_J@Z 0000000180024588     mexOMPMask.obj
 0004:00000594       $pdata$??A?$SpMatrix@N@@UEBAN_J@Z 0000000180024594     mexOMPMask.obj
 0004:000005a0       $pdata$??Bsentry@?$basic_ostream@DU?$char_traits@D@std@@@std@@QEBAPEQ?$_Bool_struct@V?$basic_ostream@DU?$char_traits@D@std@@@std@@@2@HXZ 00000001800245a0     mexOMPMask.obj
 0004:000005ac       $pdata$??D?$_List_const_iterator@V?$_List_val@U?$_List_simple_types@_J@std@@@std@@@std@@QEBAAEB_JXZ 00000001800245ac     mexOMPMask.obj
 0004:000005b8       $pdata$??E?$_List_const_iterator@V?$_List_val@U?$_List_simple_types@_J@std@@@std@@@std@@QEAAAEAV01@XZ 00000001800245b8     mexOMPMask.obj
 0004:000005c4       $pdata$??R?$ProdMatrix@M@@UEBAM_J0@Z 00000001800245c4     mexOMPMask.obj
 0004:000005d0       $pdata$??R?$ProdMatrix@N@@UEBAN_J0@Z 00000001800245d0     mexOMPMask.obj
 0004:000005dc       $pdata$??_E?$Matrix@M@@UEAAPEAXI@Z 00000001800245dc     mexOMPMask.obj
 0004:000005e8       $pdata$??_E?$Matrix@N@@UEAAPEAXI@Z 00000001800245e8     mexOMPMask.obj
 0004:000005f4       $pdata$??_E?$ProdMatrix@M@@UEAAPEAXI@Z 00000001800245f4     mexOMPMask.obj
 0004:00000600       $pdata$??_E?$ProdMatrix@N@@UEAAPEAXI@Z 0000000180024600     mexOMPMask.obj
 0004:0000060c       $pdata$??_E?$Vector@M@@UEAAPEAXI@Z 000000018002460c     mexOMPMask.obj
 0004:00000618       $pdata$??_E?$Vector@N@@UEAAPEAXI@Z 0000000180024618     mexOMPMask.obj
 0004:00000624       $pdata$??_G?$AbstractMatrix@M@@UEAAPEAXI@Z 0000000180024624     mexOMPMask.obj
 0004:00000630       $pdata$??_G?$AbstractMatrix@N@@UEAAPEAXI@Z 0000000180024630     mexOMPMask.obj
 0004:0000063c       $pdata$??_G?$AbstractMatrix@_J@@UEAAPEAXI@Z 000000018002463c     mexOMPMask.obj
 0004:00000648       $pdata$??_G?$AbstractMatrix@_N@@UEAAPEAXI@Z 0000000180024648     mexOMPMask.obj
 0004:00000654       $pdata$??_G?$AbstractMatrixB@M@@UEAAPEAXI@Z 0000000180024654     mexOMPMask.obj
 0004:00000660       $pdata$??_G?$AbstractMatrixB@N@@UEAAPEAXI@Z 0000000180024660     mexOMPMask.obj
 0004:0000066c       $pdata$??_G?$AbstractMatrixB@_J@@UEAAPEAXI@Z 000000018002466c     mexOMPMask.obj
 0004:00000678       $pdata$??_G?$AbstractMatrixB@_N@@UEAAPEAXI@Z 0000000180024678     mexOMPMask.obj
 0004:00000684       $pdata$??_G?$Data@M@@UEAAPEAXI@Z 0000000180024684     mexOMPMask.obj
 0004:00000690       $pdata$??_G?$Data@N@@UEAAPEAXI@Z 0000000180024690     mexOMPMask.obj
 0004:0000069c       $pdata$??_G?$Data@_J@@UEAAPEAXI@Z 000000018002469c     mexOMPMask.obj
 0004:000006a8       $pdata$??_G?$Data@_N@@UEAAPEAXI@Z 00000001800246a8     mexOMPMask.obj
 0004:000006b4       $pdata$??_G?$Matrix@_J@@UEAAPEAXI@Z 00000001800246b4     mexOMPMask.obj
 0004:000006c0       $pdata$??_G?$Matrix@_N@@UEAAPEAXI@Z 00000001800246c0     mexOMPMask.obj
 0004:000006cc       $pdata$??_G?$SpMatrix@M@@UEAAPEAXI@Z 00000001800246cc     mexOMPMask.obj
 0004:000006d8       $pdata$??_G?$SpMatrix@N@@UEAAPEAXI@Z 00000001800246d8     mexOMPMask.obj
 0004:000006e4       $pdata$??_G?$Vector@H@@UEAAPEAXI@Z 00000001800246e4     mexOMPMask.obj
 0004:000006f0       $pdata$??_G?$Vector@_J@@UEAAPEAXI@Z 00000001800246f0     mexOMPMask.obj
 0004:000006fc       $pdata$??_G?$Vector@_N@@UEAAPEAXI@Z 00000001800246fc     mexOMPMask.obj
 0004:00000708       $pdata$??_G_Generic_error_category@std@@UEAAPEAXI@Z 0000000180024708     mexOMPMask.obj
 0004:00000714       $pdata$??_G_Iostream_error_category@std@@UEAAPEAXI@Z 0000000180024714     mexOMPMask.obj
 0004:00000714       $pdata$??_G_System_error_category@std@@UEAAPEAXI@Z 0000000180024714     mexOMPMask.obj
 0004:00000720       $pdata$??_Gerror_category@std@@UEAAPEAXI@Z 0000000180024720     mexOMPMask.obj
 0004:0000072c       $pdata$?XtX@?$Matrix@M@@UEBAXAEAV1@@Z 000000018002472c     mexOMPMask.obj
 0004:00000738       $pdata$?XtX@?$Matrix@N@@UEBAXAEAV1@@Z 0000000180024738     mexOMPMask.obj
 0004:00000744       $pdata$?XtX@?$Matrix@_J@@UEBAXAEAV1@@Z 0000000180024744     mexOMPMask.obj
 0004:00000750       $pdata$?XtX@?$Matrix@_N@@UEBAXAEAV1@@Z 0000000180024750     mexOMPMask.obj
 0004:0000075c       $pdata$?XtX@?$SpMatrix@M@@UEBAXAEAV?$Matrix@M@@@Z 000000018002475c     mexOMPMask.obj
 0004:00000768       $pdata$?XtX@?$SpMatrix@N@@UEBAXAEAV?$Matrix@N@@@Z 0000000180024768     mexOMPMask.obj
 0004:00000774       $pdata$?_Copy@?$basic_string@DU?$char_traits@D@std@@V?$allocator@D@2@@std@@QEAAX_K0@Z 0000000180024774     mexOMPMask.obj
 0004:00000780       $pdata$?_Eos@?$basic_string@DU?$char_traits@D@std@@V?$allocator@D@2@@std@@QEAAX_K@Z 0000000180024780     mexOMPMask.obj
 0004:0000078c       $pdata$?_Getal@?$_String_alloc@$0A@U?$_String_base_types@DV?$allocator@D@std@@@std@@@std@@QEBA?AU?$_Wrap_alloc@V?$allocator@D@std@@@2@XZ 000000018002478c     mexOMPMask.obj
 0004:00000798       $pdata$?_Grow@?$basic_string@DU?$char_traits@D@std@@V?$allocator@D@2@@std@@QEAA_N_K_N@Z 0000000180024798     mexOMPMask.obj
 0004:000007a4       $pdata$?_Inside@?$basic_string@DU?$char_traits@D@std@@V?$allocator@D@2@@std@@QEAA_NPEBD@Z 00000001800247a4     mexOMPMask.obj
 0004:000007b0       $pdata$?_Myptr@?$_String_val@U?$_Simple_types@D@std@@@std@@QEAAPEADXZ 00000001800247b0     mexOMPMask.obj
 0004:000007b0       $pdata$?_Myptr@?$_String_val@U?$_Simple_types@D@std@@@std@@QEBAPEBDXZ 00000001800247b0     mexOMPMask.obj
 0004:000007bc       $pdata$?_Tidy@?$basic_string@DU?$char_traits@D@std@@V?$allocator@D@2@@std@@QEAAX_N_K@Z 00000001800247bc     mexOMPMask.obj
 0004:000007c8       $pdata$?_Xlen@?$basic_string@DU?$char_traits@D@std@@V?$allocator@D@2@@std@@QEBAXXZ 00000001800247c8     mexOMPMask.obj
 0004:000007d4       $pdata$?_Xran@?$basic_string@DU?$char_traits@D@std@@V?$allocator@D@2@@std@@QEBAXXZ 00000001800247d4     mexOMPMask.obj
 0004:000007e0       $pdata$?add@?$Vector@M@@QEAAXAEBV1@M@Z 00000001800247e0     mexOMPMask.obj
 0004:000007ec       $pdata$?add@?$Vector@N@@QEAAXAEBV1@N@Z 00000001800247ec     mexOMPMask.obj
 0004:000007f8       $pdata$?add@?$Vector@_J@@QEAAXAEBV1@_J@Z 00000001800247f8     mexOMPMask.obj
 0004:00000804       $pdata$?add@?$Vector@_N@@QEAAXAEBV1@_N@Z 0000000180024804     mexOMPMask.obj
 0004:00000810       $pdata$?addDiag@?$Matrix@M@@QEAAXM@Z 0000000180024810     mexOMPMask.obj
 0004:0000081c       $pdata$?addDiag@?$Matrix@N@@QEAAXN@Z 000000018002481c     mexOMPMask.obj
 0004:00000828       $pdata$?addDiag@?$ProdMatrix@M@@QEAAXM@Z 0000000180024828     mexOMPMask.obj
 0004:00000834       $pdata$?addDiag@?$ProdMatrix@N@@QEAAXN@Z 0000000180024834     mexOMPMask.obj
 0004:00000840       $pdata$?addRow@?$Matrix@M@@QEAAX_JAEBV?$Vector@M@@M@Z 0000000180024840     mexOMPMask.obj
 0004:0000084c       $pdata$?addRow@?$Matrix@N@@QEAAX_JAEBV?$Vector@N@@N@Z 000000018002484c     mexOMPMask.obj
 0004:00000858       $pdata$?addRow@?$Matrix@_J@@QEAAX_JAEBV?$Vector@_J@@0@Z 0000000180024858     mexOMPMask.obj
 0004:00000864       $pdata$?addRow@?$Matrix@_N@@QEAAX_JAEBV?$Vector@_N@@_N@Z 0000000180024864     mexOMPMask.obj
 0004:00000870       $pdata$?add_rawCol@?$Matrix@M@@UEBAX_JPEAMM@Z 0000000180024870     mexOMPMask.obj
 0004:0000087c       $pdata$?add_rawCol@?$Matrix@N@@UEBAX_JPEANN@Z 000000018002487c     mexOMPMask.obj
 0004:00000888       $pdata$?add_rawCol@?$Matrix@_J@@UEBAX_JPEA_J0@Z 0000000180024888     mexOMPMask.obj
 0004:00000894       $pdata$?add_rawCol@?$Matrix@_N@@UEBAX_JPEA_N_N@Z 0000000180024894     mexOMPMask.obj
 0004:000008a0       $pdata$?add_rawCol@?$ProdMatrix@M@@UEBAX_JPEAMM@Z 00000001800248a0     mexOMPMask.obj
 0004:000008ac       $pdata$?add_rawCol@?$ProdMatrix@N@@UEBAX_JPEANN@Z 00000001800248ac     mexOMPMask.obj
 0004:000008b8       $pdata$?allfalse@?$Vector@_N@@QEBA_NXZ 00000001800248b8     mexOMPMask.obj
 0004:000008c4       $pdata$?allocate@?$_Wrap_alloc@V?$allocator@D@std@@@std@@QEAAPEAD_K@Z 00000001800248c4     mexOMPMask.obj
 0004:000008d0       $pdata$?allocate@?$allocator@D@std@@QEAAPEAD_K@Z 00000001800248d0     mexOMPMask.obj
 0004:000008dc       $pdata$?alltrue@?$Vector@_N@@QEBA_NXZ 00000001800248dc     mexOMPMask.obj
 0004:000008e8       $pdata$?assign@?$basic_string@DU?$char_traits@D@std@@V?$allocator@D@2@@std@@QEAAAEAV12@AEBV12@_K1@Z 00000001800248e8     mexOMPMask.obj
 0004:000008f4       $pdata$?assign@?$basic_string@DU?$char_traits@D@std@@V?$allocator@D@2@@std@@QEAAAEAV12@PEBD@Z 00000001800248f4     mexOMPMask.obj
 0004:00000900       $pdata$?assign@?$basic_string@DU?$char_traits@D@std@@V?$allocator@D@2@@std@@QEAAAEAV12@PEBD_K@Z 0000000180024900     mexOMPMask.obj
 0004:0000090c       $pdata$?begin@?$list@_JV?$allocator@_J@std@@@std@@QEBA?AV?$_List_const_iterator@V?$_List_val@U?$_List_simple_types@_J@std@@@std@@@2@XZ 000000018002490c     mexOMPMask.obj
 0004:00000918       $pdata$?c_str@?$basic_string@DU?$char_traits@D@std@@V?$allocator@D@2@@std@@QEBAPEBDXZ 0000000180024918     mexOMPMask.obj
 0004:00000924       $pdata$?clear@?$Matrix@N@@QEAAXXZ 0000000180024924     mexOMPMask.obj
 0004:00000924       $pdata$?clear@?$Matrix@M@@QEAAXXZ 0000000180024924     mexOMPMask.obj
 0004:00000924       $pdata$?clear@?$Matrix@_N@@QEAAXXZ 0000000180024924     mexOMPMask.obj
 0004:00000924       $pdata$?clear@?$Matrix@_J@@QEAAXXZ 0000000180024924     mexOMPMask.obj
 0004:00000930       $pdata$?clear@?$SpMatrix@N@@QEAAXXZ 0000000180024930     mexOMPMask.obj
 0004:00000930       $pdata$?clear@?$SpMatrix@M@@QEAAXXZ 0000000180024930     mexOMPMask.obj
 0004:0000093c       $pdata$?clear@?$SpVector@N@@QEAAXXZ 000000018002493c     mexOMPMask.obj
 0004:0000093c       $pdata$?clear@?$SpVector@_N@@QEAAXXZ 000000018002493c     mexOMPMask.obj
 0004:0000093c       $pdata$?clear@?$SpVector@_J@@QEAAXXZ 000000018002493c     mexOMPMask.obj
 0004:0000093c       $pdata$?clear@?$SpVector@M@@QEAAXXZ 000000018002493c     mexOMPMask.obj
 0004:00000948       $pdata$?clear@?$Vector@_N@@QEAAXXZ 0000000180024948     mexOMPMask.obj
 0004:00000948       $pdata$?clear@?$Vector@H@@QEAAXXZ 0000000180024948     mexOMPMask.obj
 0004:00000948       $pdata$?clear@?$Vector@N@@QEAAXXZ 0000000180024948     mexOMPMask.obj
 0004:00000948       $pdata$?clear@?$Vector@M@@QEAAXXZ 0000000180024948     mexOMPMask.obj
 0004:00000948       $pdata$?clear@?$Vector@_J@@QEAAXXZ 0000000180024948     mexOMPMask.obj
 0004:00000954       $pdata$?convert@?$SpMatrix@M@@QEAAXAEBV?$Matrix@M@@AEBV?$Matrix@_J@@_J@Z 0000000180024954     mexOMPMask.obj
 0004:00000960       $pdata$?convert@?$SpMatrix@N@@QEAAXAEBV?$Matrix@N@@AEBV?$Matrix@_J@@_J@Z 0000000180024960     mexOMPMask.obj
 0004:0000096c       $pdata$?copy@?$Matrix@M@@QEAAXAEBV1@@Z 000000018002496c     mexOMPMask.obj
 0004:00000978       $pdata$?copy@?$Matrix@_J@@QEAAXAEBV1@@Z 0000000180024978     mexOMPMask.obj
 0004:00000978       $pdata$?copy@?$Matrix@N@@QEAAXAEBV1@@Z 0000000180024978     mexOMPMask.obj
 0004:00000984       $pdata$?copy@?$Matrix@_N@@QEAAXAEBV1@@Z 0000000180024984     mexOMPMask.obj
 0004:00000990       $pdata$?copy@?$Vector@M@@QEAAXAEBV1@@Z 0000000180024990     mexOMPMask.obj
 0004:0000099c       $pdata$?copy@?$Vector@N@@QEAAXAEBV1@@Z 000000018002499c     mexOMPMask.obj
 0004:000009a8       $pdata$?copy@?$char_traits@D@std@@SAPEADPEADPEBD_K@Z 00000001800249a8     mexOMPMask.obj
 0004:000009b4       $pdata$?copyCol@?$Matrix@M@@UEBAX_JAEAV?$Vector@M@@@Z 00000001800249b4     mexOMPMask.obj
 0004:000009c0       $pdata$?copyCol@?$Matrix@N@@UEBAX_JAEAV?$Vector@N@@@Z 00000001800249c0     mexOMPMask.obj
 0004:000009cc       $pdata$?copyCol@?$Matrix@_J@@UEBAX_JAEAV?$Vector@_J@@@Z 00000001800249cc     mexOMPMask.obj
 0004:000009d8       $pdata$?copyCol@?$Matrix@_N@@UEBAX_JAEAV?$Vector@_N@@@Z 00000001800249d8     mexOMPMask.obj
 0004:000009e4       $pdata$?copyCol@?$ProdMatrix@M@@UEBAX_JAEAV?$Vector@M@@@Z 00000001800249e4     mexOMPMask.obj
 0004:000009f0       $pdata$?copyCol@?$ProdMatrix@N@@UEBAX_JAEAV?$Vector@N@@@Z 00000001800249f0     mexOMPMask.obj
 0004:000009fc       $pdata$?copyMask@?$Matrix@M@@QEBAXAEAV1@AEAV?$Vector@_N@@@Z 00000001800249fc     mexOMPMask.obj
 0004:00000a08       $pdata$?copyMask@?$Matrix@N@@QEBAXAEAV1@AEAV?$Vector@_N@@@Z 0000000180024a08     mexOMPMask.obj
 0004:00000a14       $pdata$?copyMask@?$Vector@M@@QEBAXAEAV1@AEAV?$Vector@_N@@@Z 0000000180024a14     mexOMPMask.obj
 0004:00000a20       $pdata$?copyMask@?$Vector@N@@QEBAXAEAV1@AEAV?$Vector@_N@@@Z 0000000180024a20     mexOMPMask.obj
 0004:00000a2c       $pdata$?copyRow@?$Matrix@M@@UEBAX_JAEAV?$Vector@M@@@Z 0000000180024a2c     mexOMPMask.obj
 0004:00000a38       $pdata$?copyRow@?$Matrix@N@@UEBAX_JAEAV?$Vector@N@@@Z 0000000180024a38     mexOMPMask.obj
 0004:00000a44       $pdata$?copyRow@?$Matrix@_J@@UEBAX_JAEAV?$Vector@_J@@@Z 0000000180024a44     mexOMPMask.obj
 0004:00000a50       $pdata$?copyRow@?$Matrix@_N@@UEBAX_JAEAV?$Vector@_N@@@Z 0000000180024a50     mexOMPMask.obj
 0004:00000a5c       $pdata$?copyRow@?$SpMatrix@M@@UEBAX_JAEAV?$Vector@M@@@Z 0000000180024a5c     mexOMPMask.obj
 0004:00000a68       $pdata$?copyRow@?$SpMatrix@N@@UEBAX_JAEAV?$Vector@N@@@Z 0000000180024a68     mexOMPMask.obj
 0004:00000a74       $pdata$?copyTo@?$Matrix@M@@UEBAXAEAV1@@Z 0000000180024a74     mexOMPMask.obj
 0004:00000a80       $pdata$?copyTo@?$Matrix@N@@UEBAXAEAV1@@Z 0000000180024a80     mexOMPMask.obj
 0004:00000a80       $pdata$?copyTo@?$Matrix@_J@@UEBAXAEAV1@@Z 0000000180024a80     mexOMPMask.obj
 0004:00000a8c       $pdata$?copyTo@?$Matrix@_N@@UEBAXAEAV1@@Z 0000000180024a8c     mexOMPMask.obj
 0004:00000a98       $pdata$?copyTo@?$SpMatrix@M@@UEBAXAEAV?$Matrix@M@@@Z 0000000180024a98     mexOMPMask.obj
 0004:00000aa4       $pdata$?copyTo@?$SpMatrix@N@@UEBAXAEAV?$Matrix@N@@@Z 0000000180024aa4     mexOMPMask.obj
 0004:00000ab0       $pdata$?deallocate@?$_Wrap_alloc@V?$allocator@D@std@@@std@@QEAAXPEAD_K@Z 0000000180024ab0     mexOMPMask.obj
 0004:00000abc       $pdata$?deallocate@?$allocator@D@std@@QEAAXPEAD_K@Z 0000000180024abc     mexOMPMask.obj
 0004:00000ac8       $pdata$?default_error_condition@_System_error_category@std@@UEBA?AVerror_condition@2@H@Z 0000000180024ac8     mexOMPMask.obj
 0004:00000ad4       $pdata$?default_error_condition@error_category@std@@UEBA?AVerror_condition@2@H@Z 0000000180024ad4     mexOMPMask.obj
 0004:00000ae0       $pdata$?diag@?$Matrix@M@@UEBAXAEAV?$Vector@M@@@Z 0000000180024ae0     mexOMPMask.obj
 0004:00000aec       $pdata$?diag@?$Matrix@N@@UEBAXAEAV?$Vector@N@@@Z 0000000180024aec     mexOMPMask.obj
 0004:00000af8       $pdata$?diag@?$Matrix@_J@@UEBAXAEAV?$Vector@_J@@@Z 0000000180024af8     mexOMPMask.obj
 0004:00000b04       $pdata$?diag@?$Matrix@_N@@UEBAXAEAV?$Vector@_N@@@Z 0000000180024b04     mexOMPMask.obj
 0004:00000b10       $pdata$?diag@?$ProdMatrix@M@@UEBAXAEAV?$Vector@M@@@Z 0000000180024b10     mexOMPMask.obj
 0004:00000b1c       $pdata$?diag@?$ProdMatrix@N@@UEBAXAEAV?$Vector@N@@@Z 0000000180024b1c     mexOMPMask.obj
 0004:00000b28       $pdata$?div@?$Vector@M@@QEAAXAEBV1@@Z 0000000180024b28     mexOMPMask.obj
 0004:00000b34       $pdata$?div@?$Vector@N@@QEAAXAEBV1@@Z 0000000180024b34     mexOMPMask.obj
 0004:00000b40       $pdata$?dot@?$Matrix@M@@UEBAMAEBV1@@Z 0000000180024b40     mexOMPMask.obj
 0004:00000b4c       $pdata$?dot@?$Matrix@N@@UEBANAEBV1@@Z 0000000180024b4c     mexOMPMask.obj
 0004:00000b58       $pdata$?dot@?$Matrix@_J@@UEBA_JAEBV1@@Z 0000000180024b58     mexOMPMask.obj
 0004:00000b64       $pdata$?dot@?$Matrix@_N@@UEBA_NAEBV1@@Z 0000000180024b64     mexOMPMask.obj
 0004:00000b70       $pdata$?dot@?$SpMatrix@M@@UEBAMAEBV?$Matrix@M@@@Z 0000000180024b70     mexOMPMask.obj
 0004:00000b7c       $pdata$?dot@?$SpMatrix@N@@UEBANAEBV?$Matrix@N@@@Z 0000000180024b7c     mexOMPMask.obj
 0004:00000b88       $pdata$?dot@?$SpVector@M@@QEBAMAEBV1@@Z 0000000180024b88     mexOMPMask.obj
 0004:00000b94       $pdata$?dot@?$SpVector@N@@QEBANAEBV1@@Z 0000000180024b94     mexOMPMask.obj
 0004:00000ba0       $pdata$?dot@?$Vector@M@@QEBAMAEBV1@@Z 0000000180024ba0     mexOMPMask.obj
 0004:00000bac       $pdata$?dot@?$Vector@M@@QEBAMAEBV?$SpVector@M@@@Z 0000000180024bac     mexOMPMask.obj
 0004:00000bb8       $pdata$?dot@?$Vector@N@@QEBANAEBV1@@Z 0000000180024bb8     mexOMPMask.obj
 0004:00000bc4       $pdata$?dot@?$Vector@N@@QEBANAEBV?$SpVector@N@@@Z 0000000180024bc4     mexOMPMask.obj
 0004:00000bd0       $pdata$?dot@?$Vector@_J@@QEBA_JAEBV?$SpVector@_J@@@Z 0000000180024bd0     mexOMPMask.obj
 0004:00000bdc       $pdata$?dot@?$Vector@_N@@QEBA_NAEBV?$SpVector@_N@@@Z 0000000180024bdc     mexOMPMask.obj
 0004:00000be8       $pdata$?end@?$list@_JV?$allocator@_J@std@@@std@@QEBA?AV?$_List_const_iterator@V?$_List_val@U?$_List_simple_types@_J@std@@@std@@@2@XZ 0000000180024be8     mexOMPMask.obj
 0004:00000bf4       $pdata$?eq_int_type@?$char_traits@D@std@@SA_NAEBH0@Z 0000000180024bf4     mexOMPMask.obj
 0004:00000c00       $pdata$?equivalent@error_category@std@@UEBA_NAEBVerror_code@2@H@Z 0000000180024c00     mexOMPMask.obj
 0004:00000c0c       $pdata$?equivalent@error_category@std@@UEBA_NHAEBVerror_condition@2@@Z 0000000180024c0c     mexOMPMask.obj
 0004:00000c18       $pdata$?erase@?$basic_string@DU?$char_traits@D@std@@V?$allocator@D@2@@std@@QEAAAEAV12@_K0@Z 0000000180024c18     mexOMPMask.obj
 0004:00000c24       $pdata$?erase@?$basic_string@DU?$char_traits@D@std@@V?$allocator@D@2@@std@@QEAAAEAV12@_K@Z 0000000180024c24     mexOMPMask.obj
 0004:00000c30       $pdata$?extract_rawCol@?$Matrix@M@@UEBAX_JPEAM@Z 0000000180024c30     mexOMPMask.obj
 0004:00000c3c       $pdata$?extract_rawCol@?$Matrix@N@@UEBAX_JPEAN@Z 0000000180024c3c     mexOMPMask.obj
 0004:00000c48       $pdata$?extract_rawCol@?$Matrix@_J@@UEBAX_JPEA_J@Z 0000000180024c48     mexOMPMask.obj
 0004:00000c54       $pdata$?extract_rawCol@?$Matrix@_N@@UEBAX_JPEA_N@Z 0000000180024c54     mexOMPMask.obj
 0004:00000c60       $pdata$?extract_rawCol@?$ProdMatrix@M@@UEBAX_JPEAM@Z 0000000180024c60     mexOMPMask.obj
 0004:00000c6c       $pdata$?extract_rawCol@?$ProdMatrix@N@@UEBAX_JPEAN@Z 0000000180024c6c     mexOMPMask.obj
 0004:00000c78       $pdata$?fillSymmetric@?$Matrix@M@@QEAAXXZ 0000000180024c78     mexOMPMask.obj
 0004:00000c84       $pdata$?fillSymmetric@?$Matrix@N@@QEAAXXZ 0000000180024c84     mexOMPMask.obj
 0004:00000c90       $pdata$?fillSymmetric@?$Matrix@_J@@QEAAXXZ 0000000180024c90     mexOMPMask.obj
 0004:00000c9c       $pdata$?fillSymmetric@?$Matrix@_N@@QEAAXXZ 0000000180024c9c     mexOMPMask.obj
 0004:00000ca8       $pdata$?fmax@?$Vector@M@@QEBA_JXZ 0000000180024ca8     mexOMPMask.obj
 0004:00000cb4       $pdata$?fmax@?$Vector@N@@QEBA_JXZ 0000000180024cb4     mexOMPMask.obj
 0004:00000cc0       $pdata$?getData@?$Matrix@_N@@UEBAXAEAV?$Vector@_N@@_J@Z 0000000180024cc0     mexOMPMask.obj
 0004:00000cc0       $pdata$?getData@?$Matrix@_J@@UEBAXAEAV?$Vector@_J@@_J@Z 0000000180024cc0     mexOMPMask.obj
 0004:00000cc0       $pdata$?getData@?$Matrix@N@@UEBAXAEAV?$Vector@N@@_J@Z 0000000180024cc0     mexOMPMask.obj
 0004:00000cc0       $pdata$?getData@?$Matrix@M@@UEBAXAEAV?$Vector@M@@_J@Z 0000000180024cc0     mexOMPMask.obj
 0004:00000ccc       $pdata$?getData@?$SpMatrix@M@@UEBAXAEAV?$Vector@M@@_J@Z 0000000180024ccc     mexOMPMask.obj
 0004:00000cd8       $pdata$?getData@?$SpMatrix@N@@UEBAXAEAV?$Vector@N@@_J@Z 0000000180024cd8     mexOMPMask.obj
 0004:00000ce4       $pdata$?getGroup@?$Matrix@M@@UEBAXAEAV1@AEBV?$vector@V?$list@_JV?$allocator@_J@std@@@std@@V?$allocator@V?$list@_JV?$allocator@_J@std@@@std@@@2@@std@@_J@Z 0000000180024ce4     mexOMPMask.obj
 0004:00000cf0       $pdata$?getGroup@?$Matrix@N@@UEBAXAEAV1@AEBV?$vector@V?$list@_JV?$allocator@_J@std@@@std@@V?$allocator@V?$list@_JV?$allocator@_J@std@@@std@@@2@@std@@_J@Z 0000000180024cf0     mexOMPMask.obj
 0004:00000cfc       $pdata$?getGroup@?$Matrix@_J@@UEBAXAEAV1@AEBV?$vector@V?$list@_JV?$allocator@_J@std@@@std@@V?$allocator@V?$list@_JV?$allocator@_J@std@@@std@@@2@@std@@_J@Z 0000000180024cfc     mexOMPMask.obj
 0004:00000d08       $pdata$?getGroup@?$Matrix@_N@@UEBAXAEAV1@AEBV?$vector@V?$list@_JV?$allocator@_J@std@@@std@@V?$allocator@V?$list@_JV?$allocator@_J@std@@@std@@@2@@std@@_J@Z 0000000180024d08     mexOMPMask.obj
 0004:00000d14       $pdata$?getGroup@?$SpMatrix@M@@UEBAXAEAV?$Matrix@M@@AEBV?$vector@V?$list@_JV?$allocator@_J@std@@@std@@V?$allocator@V?$list@_JV?$allocator@_J@std@@@std@@@2@@std@@_J@Z 0000000180024d14     mexOMPMask.obj
 0004:00000d20       $pdata$?getGroup@?$SpMatrix@N@@UEBAXAEAV?$Matrix@N@@AEBV?$vector@V?$list@_JV?$allocator@_J@std@@@std@@V?$allocator@V?$list@_JV?$allocator@_J@std@@@std@@@2@@std@@_J@Z 0000000180024d20     mexOMPMask.obj
 0004:00000d2c       $pdata$?length@?$char_traits@D@std@@SA_KPEBD@Z 0000000180024d2c     mexOMPMask.obj
 0004:00000d38       $pdata$?max@?$Vector@H@@QEBA_JXZ 0000000180024d38     mexOMPMask.obj
 0004:00000d44       $pdata$?max_size@?$_Wrap_alloc@V?$allocator@D@std@@@std@@QEBA_KXZ 0000000180024d44     mexOMPMask.obj
 0004:00000d50       $pdata$?max_size@?$allocator_traits@V?$allocator@D@std@@@std@@SA_KAEBV?$allocator@D@2@@Z 0000000180024d50     mexOMPMask.obj
 0004:00000d5c       $pdata$?max_size@?$basic_string@DU?$char_traits@D@std@@V?$allocator@D@2@@std@@QEBA_KXZ 0000000180024d5c     mexOMPMask.obj
 0004:00000d68       $pdata$?maxval@?$Vector@H@@QEBAHXZ 0000000180024d68     mexOMPMask.obj
 0004:00000d74       $pdata$?message@_Generic_error_category@std@@UEBA?AV?$basic_string@DU?$char_traits@D@std@@V?$allocator@D@2@@2@H@Z 0000000180024d74     mexOMPMask.obj
 0004:00000d80       $pdata$?message@_Iostream_error_category@std@@UEBA?AV?$basic_string@DU?$char_traits@D@std@@V?$allocator@D@2@@2@H@Z 0000000180024d80     mexOMPMask.obj
 0004:00000d8c       $pdata$?message@_System_error_category@std@@UEBA?AV?$basic_string@DU?$char_traits@D@std@@V?$allocator@D@2@@2@H@Z 0000000180024d8c     mexOMPMask.obj
 0004:00000d98       $pdata$?move@?$char_traits@D@std@@SAPEADPEADPEBD_K@Z 0000000180024d98     mexOMPMask.obj
 0004:00000da4       $pdata$?mult@?$Matrix@M@@UEBAXAEBV1@AEAV1@_N2MM@Z 0000000180024da4     mexOMPMask.obj
 0004:00000db0       $pdata$?mult@?$Matrix@M@@UEBAXAEBV?$SpMatrix@M@@AEAV1@_N2MM@Z 0000000180024db0     mexOMPMask.obj
 0004:00000dbc       $pdata$?mult@?$Matrix@M@@UEBAXAEBV?$SpVector@M@@AEAV?$Vector@M@@MM@Z 0000000180024dbc     mexOMPMask.obj
 0004:00000dc8       $pdata$?mult@?$Matrix@M@@UEBAXAEBV?$Vector@M@@AEAV2@MM@Z 0000000180024dc8     mexOMPMask.obj
 0004:00000dd4       $pdata$?mult@?$Matrix@N@@UEBAXAEBV1@AEAV1@_N2NN@Z 0000000180024dd4     mexOMPMask.obj
 0004:00000de0       $pdata$?mult@?$Matrix@N@@UEBAXAEBV?$SpMatrix@N@@AEAV1@_N2NN@Z 0000000180024de0     mexOMPMask.obj
 0004:00000dec       $pdata$?mult@?$Matrix@N@@UEBAXAEBV?$SpVector@N@@AEAV?$Vector@N@@NN@Z 0000000180024dec     mexOMPMask.obj
 0004:00000df8       $pdata$?mult@?$Matrix@N@@UEBAXAEBV?$Vector@N@@AEAV2@NN@Z 0000000180024df8     mexOMPMask.obj
 0004:00000e04       $pdata$?mult@?$Matrix@_J@@UEBAXAEBV1@AEAV1@_N2_J3@Z 0000000180024e04     mexOMPMask.obj
 0004:00000e10       $pdata$?mult@?$Matrix@_J@@UEBAXAEBV?$SpMatrix@_J@@AEAV1@_N2_J3@Z 0000000180024e10     mexOMPMask.obj
 0004:00000e1c       $pdata$?mult@?$Matrix@_J@@UEBAXAEBV?$SpVector@_J@@AEAV?$Vector@_J@@_J2@Z 0000000180024e1c     mexOMPMask.obj
 0004:00000e28       $pdata$?mult@?$Matrix@_J@@UEBAXAEBV?$Vector@_J@@AEAV2@_J2@Z 0000000180024e28     mexOMPMask.obj
 0004:00000e34       $pdata$?mult@?$Matrix@_N@@UEBAXAEBV1@AEAV1@_N222@Z 0000000180024e34     mexOMPMask.obj
 0004:00000e40       $pdata$?mult@?$Matrix@_N@@UEBAXAEBV?$SpMatrix@_N@@AEAV1@_N222@Z 0000000180024e40     mexOMPMask.obj
 0004:00000e4c       $pdata$?mult@?$Matrix@_N@@UEBAXAEBV?$SpVector@_N@@AEAV?$Vector@_N@@_N2@Z 0000000180024e4c     mexOMPMask.obj
 0004:00000e58       $pdata$?mult@?$Matrix@_N@@UEBAXAEBV?$Vector@_N@@AEAV2@_N2@Z 0000000180024e58     mexOMPMask.obj
 0004:00000e64       $pdata$?mult@?$SpMatrix@M@@UEBAXAEBV1@AEAV?$Matrix@M@@_N2MM@Z 0000000180024e64     mexOMPMask.obj
 0004:00000e70       $pdata$?mult@?$SpMatrix@M@@UEBAXAEBV?$Matrix@M@@AEAV2@_N2MM@Z 0000000180024e70     mexOMPMask.obj
 0004:00000e7c       $pdata$?mult@?$SpMatrix@M@@UEBAXAEBV?$SpVector@M@@AEAV?$Vector@M@@MM@Z 0000000180024e7c     mexOMPMask.obj
 0004:00000e88       $pdata$?mult@?$SpMatrix@M@@UEBAXAEBV?$Vector@M@@AEAV2@MM@Z 0000000180024e88     mexOMPMask.obj
 0004:00000e94       $pdata$?mult@?$SpMatrix@N@@UEBAXAEBV1@AEAV?$Matrix@N@@_N2NN@Z 0000000180024e94     mexOMPMask.obj
 0004:00000ea0       $pdata$?mult@?$SpMatrix@N@@UEBAXAEBV?$Matrix@N@@AEAV2@_N2NN@Z 0000000180024ea0     mexOMPMask.obj
 0004:00000eac       $pdata$?mult@?$SpMatrix@N@@UEBAXAEBV?$SpVector@N@@AEAV?$Vector@N@@NN@Z 0000000180024eac     mexOMPMask.obj
 0004:00000eb8       $pdata$?mult@?$SpMatrix@N@@UEBAXAEBV?$Vector@N@@AEAV2@NN@Z 0000000180024eb8     mexOMPMask.obj
 0004:00000ec4       $pdata$?multSwitch@?$Matrix@M@@UEBAXAEBV1@AEAV1@_N2MM@Z 0000000180024ec4     mexOMPMask.obj
 0004:00000ed0       $pdata$?multSwitch@?$Matrix@N@@UEBAXAEBV1@AEAV1@_N2NN@Z 0000000180024ed0     mexOMPMask.obj
 0004:00000edc       $pdata$?multSwitch@?$Matrix@_J@@UEBAXAEBV1@AEAV1@_N2_J3@Z 0000000180024edc     mexOMPMask.obj
 0004:00000ee8       $pdata$?multSwitch@?$Matrix@_N@@UEBAXAEBV1@AEAV1@_N222@Z 0000000180024ee8     mexOMPMask.obj
 0004:00000ef4       $pdata$?multSwitch@?$SpMatrix@M@@UEBAXAEBV?$Matrix@M@@AEAV2@_N2MM@Z 0000000180024ef4     mexOMPMask.obj
 0004:00000f00       $pdata$?multSwitch@?$SpMatrix@N@@UEBAXAEBV?$Matrix@N@@AEAV2@_N2NN@Z 0000000180024f00     mexOMPMask.obj
 0004:00000f0c       $pdata$?multTrans@?$Matrix@M@@QEBAXAEBV?$SpVector@M@@AEAV?$Vector@M@@MM@Z 0000000180024f0c     mexOMPMask.obj
 0004:00000f18       $pdata$?multTrans@?$Matrix@M@@UEBAXAEBV?$Vector@M@@AEAV2@MM@Z 0000000180024f18     mexOMPMask.obj
 0004:00000f24       $pdata$?multTrans@?$Matrix@N@@QEBAXAEBV?$SpVector@N@@AEAV?$Vector@N@@NN@Z 0000000180024f24     mexOMPMask.obj
 0004:00000f30       $pdata$?multTrans@?$Matrix@N@@UEBAXAEBV?$Vector@N@@AEAV2@NN@Z 0000000180024f30     mexOMPMask.obj
 0004:00000f3c       $pdata$?multTrans@?$Matrix@_J@@QEBAXAEBV?$SpVector@_J@@AEAV?$Vector@_J@@_J2@Z 0000000180024f3c     mexOMPMask.obj
 0004:00000f48       $pdata$?multTrans@?$Matrix@_J@@UEBAXAEBV?$Vector@_J@@AEAV2@_J2@Z 0000000180024f48     mexOMPMask.obj
 0004:00000f54       $pdata$?multTrans@?$Matrix@_N@@QEBAXAEBV?$SpVector@_N@@AEAV?$Vector@_N@@_N2@Z 0000000180024f54     mexOMPMask.obj
 0004:00000f60       $pdata$?multTrans@?$Matrix@_N@@UEBAXAEBV?$Vector@_N@@AEAV2@_N2@Z 0000000180024f60     mexOMPMask.obj
 0004:00000f6c       $pdata$?multTrans@?$SpMatrix@M@@QEBAXAEBV?$SpVector@M@@AEAV?$Vector@M@@MM@Z 0000000180024f6c     mexOMPMask.obj
 0004:00000f78       $pdata$?multTrans@?$SpMatrix@M@@UEBAXAEBV?$Vector@M@@AEAV2@MM@Z 0000000180024f78     mexOMPMask.obj
 0004:00000f84       $pdata$?multTrans@?$SpMatrix@N@@QEBAXAEBV?$SpVector@N@@AEAV?$Vector@N@@NN@Z 0000000180024f84     mexOMPMask.obj
 0004:00000f90       $pdata$?multTrans@?$SpMatrix@N@@UEBAXAEBV?$Vector@N@@AEAV2@NN@Z 0000000180024f90     mexOMPMask.obj
 0004:00000f9c       $pdata$?norm_2sq_cols@?$Matrix@M@@UEBAXAEAV?$Vector@M@@@Z 0000000180024f9c     mexOMPMask.obj
 0004:00000fa8       $pdata$?norm_2sq_cols@?$Matrix@N@@UEBAXAEAV?$Vector@N@@@Z 0000000180024fa8     mexOMPMask.obj
 0004:00000fb4       $pdata$?norm_2sq_cols@?$Matrix@_J@@UEBAXAEAV?$Vector@_J@@@Z 0000000180024fb4     mexOMPMask.obj
 0004:00000fc0       $pdata$?norm_2sq_cols@?$Matrix@_N@@UEBAXAEAV?$Vector@_N@@@Z 0000000180024fc0     mexOMPMask.obj
 0004:00000fcc       $pdata$?norm_2sq_cols@?$SpMatrix@M@@UEBAXAEAV?$Vector@M@@@Z 0000000180024fcc     mexOMPMask.obj
 0004:00000fd8       $pdata$?norm_2sq_cols@?$SpMatrix@N@@UEBAXAEAV?$Vector@N@@@Z 0000000180024fd8     mexOMPMask.obj
 0004:00000fe4       $pdata$?nrm2sq@?$SpVector@M@@QEBAMXZ 0000000180024fe4     mexOMPMask.obj
 0004:00000ff0       $pdata$?nrm2sq@?$SpVector@N@@QEBANXZ 0000000180024ff0     mexOMPMask.obj
 0004:00000ffc       $pdata$?nrm2sq@?$Vector@M@@QEBAMXZ 0000000180024ffc     mexOMPMask.obj
 0004:00001008       $pdata$?nrm2sq@?$Vector@N@@QEBANXZ 0000000180025008     mexOMPMask.obj
 0004:00001014       $pdata$?nrm2sq@?$Vector@_J@@QEBA_JXZ 0000000180025014     mexOMPMask.obj
 0004:00001020       $pdata$?nrm2sq@?$Vector@_N@@QEBA_NXZ 0000000180025020     mexOMPMask.obj
 0004:0000102c       $pdata$?print@?$Matrix@M@@UEBAXAEBV?$basic_string@DU?$char_traits@D@std@@V?$allocator@D@2@@std@@@Z 000000018002502c     mexOMPMask.obj
 0004:00001038       $pdata$?print@?$Matrix@N@@UEBAXAEBV?$basic_string@DU?$char_traits@D@std@@V?$allocator@D@2@@std@@@Z 0000000180025038     mexOMPMask.obj
 0004:00001044       $pdata$?print@?$Matrix@_J@@UEBAXAEBV?$basic_string@DU?$char_traits@D@std@@V?$allocator@D@2@@std@@@Z 0000000180025044     mexOMPMask.obj
 0004:00001050       $pdata$?print@?$Matrix@_N@@UEBAXAEBV?$basic_string@DU?$char_traits@D@std@@V?$allocator@D@2@@std@@@Z 0000000180025050     mexOMPMask.obj
 0004:0000105c       $pdata$?print@?$SpMatrix@M@@UEBAXAEBV?$basic_string@DU?$char_traits@D@std@@V?$allocator@D@2@@std@@@Z 000000018002505c     mexOMPMask.obj
 0004:00001068       $pdata$?print@?$SpMatrix@N@@UEBAXAEBV?$basic_string@DU?$char_traits@D@std@@V?$allocator@D@2@@std@@@Z 0000000180025068     mexOMPMask.obj
 0004:00001074       $pdata$?rank1Update@?$Matrix@M@@QEAAXAEBV?$SpVector@M@@0M@Z 0000000180025074     mexOMPMask.obj
 0004:00001080       $pdata$?rank1Update@?$Matrix@M@@QEAAXAEBV?$Vector@M@@AEBV?$SpVector@M@@M@Z 0000000180025080     mexOMPMask.obj
 0004:0000108c       $pdata$?rank1Update@?$Matrix@N@@QEAAXAEBV?$SpVector@N@@0N@Z 000000018002508c     mexOMPMask.obj
 0004:00001098       $pdata$?rank1Update@?$Matrix@N@@QEAAXAEBV?$Vector@N@@AEBV?$SpVector@N@@N@Z 0000000180025098     mexOMPMask.obj
 0004:000010a4       $pdata$?rank1Update@?$Matrix@_J@@QEAAXAEBV?$Vector@_J@@AEBV?$SpVector@_J@@_J@Z 00000001800250a4     mexOMPMask.obj
 0004:000010b0       $pdata$?rank1Update@?$Matrix@_N@@QEAAXAEBV?$Vector@_N@@AEBV?$SpVector@_N@@_N@Z 00000001800250b0     mexOMPMask.obj
 0004:000010bc       $pdata$?refCol@?$Matrix@M@@QEBAX_JAEAV?$Vector@M@@@Z 00000001800250bc     mexOMPMask.obj
 0004:000010c8       $pdata$?refCol@?$Matrix@N@@QEBAX_JAEAV?$Vector@N@@@Z 00000001800250c8     mexOMPMask.obj
 0004:000010c8       $pdata$?refCol@?$Matrix@_J@@QEBAX_JAEAV?$Vector@_J@@@Z 00000001800250c8     mexOMPMask.obj
 0004:000010d4       $pdata$?refCol@?$Matrix@_N@@QEBAX_JAEAV?$Vector@_N@@@Z 00000001800250d4     mexOMPMask.obj
 0004:000010e0       $pdata$?refCol@?$SpMatrix@M@@QEBAX_JAEAV?$SpVector@M@@@Z 00000001800250e0     mexOMPMask.obj
 0004:000010ec       $pdata$?refCol@?$SpMatrix@_J@@QEBAX_JAEAV?$SpVector@_J@@@Z 00000001800250ec     mexOMPMask.obj
 0004:000010ec       $pdata$?refCol@?$SpMatrix@N@@QEBAX_JAEAV?$SpVector@N@@@Z 00000001800250ec     mexOMPMask.obj
 0004:000010f8       $pdata$?refCol@?$SpMatrix@_N@@QEBAX_JAEAV?$SpVector@_N@@@Z 00000001800250f8     mexOMPMask.obj
 0004:00001104       $pdata$?resize@?$Matrix@M@@QEAAX_J0_N@Z 0000000180025104     mexOMPMask.obj
 0004:00001110       $pdata$?resize@?$Matrix@N@@QEAAX_J0_N@Z 0000000180025110     mexOMPMask.obj
 0004:00001110       $pdata$?resize@?$Matrix@_J@@QEAAX_J0_N@Z 0000000180025110     mexOMPMask.obj
 0004:0000111c       $pdata$?resize@?$Matrix@_N@@QEAAX_J0_N@Z 000000018002511c     mexOMPMask.obj
 0004:00001128       $pdata$?resize@?$SpMatrix@M@@QEAAX_J00@Z 0000000180025128     mexOMPMask.obj
 0004:00001134       $pdata$?resize@?$SpMatrix@N@@QEAAX_J00@Z 0000000180025134     mexOMPMask.obj
 0004:00001140       $pdata$?resize@?$Vector@M@@QEAAX_J@Z 0000000180025140     mexOMPMask.obj
 0004:0000114c       $pdata$?resize@?$Vector@_J@@QEAAX_J@Z 000000018002514c     mexOMPMask.obj
 0004:0000114c       $pdata$?resize@?$Vector@N@@QEAAX_J@Z 000000018002514c     mexOMPMask.obj
 0004:00001158       $pdata$?resize@?$Vector@_N@@QEAAX_J@Z 0000000180025158     mexOMPMask.obj
 0004:00001164       $pdata$?scal@?$Matrix@M@@QEAAXM@Z 0000000180025164     mexOMPMask.obj
 0004:00001170       $pdata$?scal@?$Matrix@N@@QEAAXN@Z 0000000180025170     mexOMPMask.obj
 0004:0000117c       $pdata$?scal@?$Matrix@_J@@QEAAX_J@Z 000000018002517c     mexOMPMask.obj
 0004:00001188       $pdata$?scal@?$Matrix@_N@@QEAAX_N@Z 0000000180025188     mexOMPMask.obj
 0004:00001194       $pdata$?scal@?$Vector@M@@QEAAXM@Z 0000000180025194     mexOMPMask.obj
 0004:000011a0       $pdata$?scal@?$Vector@N@@QEAAXN@Z 00000001800251a0     mexOMPMask.obj
 0004:000011ac       $pdata$?scal@?$Vector@_J@@QEAAX_J@Z 00000001800251ac     mexOMPMask.obj
 0004:000011b8       $pdata$?scal@?$Vector@_N@@QEAAX_N@Z 00000001800251b8     mexOMPMask.obj
 0004:000011c4       $pdata$?set@?$Vector@M@@QEAAXM@Z 00000001800251c4     mexOMPMask.obj
 0004:000011d0       $pdata$?set@?$Vector@N@@QEAAXN@Z 00000001800251d0     mexOMPMask.obj
 0004:000011dc       $pdata$?set@?$Vector@_J@@QEAAX_J@Z 00000001800251dc     mexOMPMask.obj
 0004:000011e8       $pdata$?setMatrices@?$ProdMatrix@M@@QEAAXAEBV?$Matrix@M@@_N@Z 00000001800251e8     mexOMPMask.obj
 0004:000011f4       $pdata$?setMatrices@?$ProdMatrix@N@@QEAAXAEBV?$Matrix@N@@_N@Z 00000001800251f4     mexOMPMask.obj
 0004:00001200       $pdata$?setZeros@?$Matrix@M@@QEAAXXZ 0000000180025200     mexOMPMask.obj
 0004:0000120c       $pdata$?setZeros@?$Matrix@_J@@QEAAXXZ 000000018002520c     mexOMPMask.obj
 0004:0000120c       $pdata$?setZeros@?$Matrix@N@@QEAAXXZ 000000018002520c     mexOMPMask.obj
 0004:00001218       $pdata$?setZeros@?$Matrix@_N@@QEAAXXZ 0000000180025218     mexOMPMask.obj
 0004:00001224       $pdata$?setZeros@?$Vector@M@@QEAAXXZ 0000000180025224     mexOMPMask.obj
 0004:00001230       $pdata$?setZeros@?$Vector@_J@@QEAAXXZ 0000000180025230     mexOMPMask.obj
 0004:00001230       $pdata$?setZeros@?$Vector@N@@QEAAXXZ 0000000180025230     mexOMPMask.obj
 0004:0000123c       $pdata$?setZeros@?$Vector@_N@@QEAAXXZ 000000018002523c     mexOMPMask.obj
 0004:00001248       $pdata$?sqr@?$Vector@M@@QEAAXAEBV1@@Z 0000000180025248     mexOMPMask.obj
 0004:00001254       $pdata$?sqr@?$Vector@N@@QEAAXAEBV1@@Z 0000000180025254     mexOMPMask.obj
 0004:00001260       $pdata$?sqrt@@YAMM@Z       0000000180025260     mexOMPMask.obj
 0004:0000126c       $pdata$?sub@?$Vector@M@@QEAAXAEBV1@@Z 000000018002526c     mexOMPMask.obj
 0004:00001278       $pdata$?sub@?$Vector@N@@QEAAXAEBV1@@Z 0000000180025278     mexOMPMask.obj
 0004:00001284       $pdata$?toFull@?$SpMatrix@M@@QEBAXAEAV?$Matrix@M@@@Z 0000000180025284     mexOMPMask.obj
 0004:00001290       $pdata$?toFull@?$SpMatrix@N@@QEBAXAEAV?$Matrix@N@@@Z 0000000180025290     mexOMPMask.obj
 0004:0000129c       $pdata$fabsf               000000018002529c     mexOMPMask.obj
 0004:000012a8       $pdata$??_L@YAXPEAX_KHP6AX0@Z2@Z 00000001800252a8     MSVCRT:ehvecctr.obj
 0004:000012b4       $pdata$??_M@YAXPEAX_KHP6AX0@Z@Z 00000001800252b4     MSVCRT:ehvecdtr.obj
 0004:000012c0       $pdata$?__ArrayUnwind@@YAXPEAX_KHP6AX0@Z@Z 00000001800252c0     MSVCRT:ehvecdtr.obj
 0004:000012cc       $pdata$__atonexitinit      00000001800252cc     MSVCRT:atonexit.obj
 0004:000012d8       $pdata$_onexit             00000001800252d8     MSVCRT:atonexit.obj
 0004:000012e4       $pdata$atexit              00000001800252e4     MSVCRT:atonexit.obj
 0004:000012f0       $pdata$??_Etype_info@@UEAAPEAXI@Z 00000001800252f0     MSVCRT:ti_inst.obj
 0004:000012fc       $pdata$pre_c_init          00000001800252fc     MSVCRT:crtdll.obj
 0004:00001308       $pdata$_CRT_INIT           0000000180025308     MSVCRT:crtdll.obj
 0004:00001314       $pdata$_DllMainCRTStartup  0000000180025314     MSVCRT:crtdll.obj
 0004:00001320       $pdata$__DllMainCRTStartup 0000000180025320     MSVCRT:crtdll.obj
 0004:0000132c       $pdata$_IsNonwritableInCurrentImage 000000018002532c     MSVCRT:pesect.obj
 0004:00001338       $pdata$__security_init_cookie 0000000180025338     MSVCRT:gs_support.obj
 0004:00001344       $pdata$DllMain             0000000180025344     MSVCRT:dllmain.obj
 0004:00001350       $pdata$_RTC_Initialize     0000000180025350     MSVCRT:initsect.obj
 0004:0000135c       $pdata$_RTC_Terminate      000000018002535c     MSVCRT:initsect.obj
 0004:00001368       $pdata$?dtor$0@?0???$?6DU?$char_traits@D@std@@V?$allocator@D@1@@std@@YAAEAV?$basic_ostream@DU?$char_traits@D@std@@@0@AEAV10@AEBV?$basic_string@DU?$char_traits@D@std@@V?$allocator@D@2@@0@@Z@4HA 0000000180025368     mexOMPMask.obj
 0004:00001374       $pdata$?catch$0@?0???$?6DU?$char_traits@D@std@@V?$allocator@D@1@@std@@YAAEAV?$basic_ostream@DU?$char_traits@D@std@@@0@AEAV10@AEBV?$basic_string@DU?$char_traits@D@std@@V?$allocator@D@2@@0@@Z@4HA 0000000180025374     mexOMPMask.obj
 0004:00001380       $pdata$?dtor$0@?0???$?6U?$char_traits@D@std@@@std@@YAAEAV?$basic_ostream@DU?$char_traits@D@std@@@0@AEAV10@PEBD@Z@4HA 0000000180025380     mexOMPMask.obj
 0004:0000138c       $pdata$?catch$0@?0???$?6U?$char_traits@D@std@@@std@@YAAEAV?$basic_ostream@DU?$char_traits@D@std@@@0@AEAV10@PEBD@Z@4HA 000000018002538c     mexOMPMask.obj
 0004:00001398       $pdata$?dtor$0@?0???$callFunction@M@@YAXQEAPEAUmxArray_tag@@QEAPEBU0@H@Z@4HA 0000000180025398     mexOMPMask.obj
 0004:000013a4       $pdata$?dtor$1@?0???$callFunction@M@@YAXQEAPEAUmxArray_tag@@QEAPEBU0@H@Z@4HA 00000001800253a4     mexOMPMask.obj
 0004:000013b0       $pdata$?dtor$2@?0???$callFunction@M@@YAXQEAPEAUmxArray_tag@@QEAPEBU0@H@Z@4HA 00000001800253b0     mexOMPMask.obj
 0004:000013bc       $pdata$?dtor$3@?0???$callFunction@M@@YAXQEAPEAUmxArray_tag@@QEAPEBU0@H@Z@4HA 00000001800253bc     mexOMPMask.obj
 0004:000013c8       $pdata$?dtor$4@?0???$callFunction@M@@YAXQEAPEAUmxArray_tag@@QEAPEBU0@H@Z@4HA 00000001800253c8     mexOMPMask.obj
 0004:000013d4       $pdata$?dtor$0@?0???$callFunction@N@@YAXQEAPEAUmxArray_tag@@QEAPEBU0@H@Z@4HA 00000001800253d4     mexOMPMask.obj
 0004:000013e0       $pdata$?dtor$1@?0???$callFunction@N@@YAXQEAPEAUmxArray_tag@@QEAPEBU0@H@Z@4HA 00000001800253e0     mexOMPMask.obj
 0004:000013ec       $pdata$?dtor$2@?0???$callFunction@N@@YAXQEAPEAUmxArray_tag@@QEAPEBU0@H@Z@4HA 00000001800253ec     mexOMPMask.obj
 0004:000013f8       $pdata$?dtor$3@?0???$callFunction@N@@YAXQEAPEAUmxArray_tag@@QEAPEBU0@H@Z@4HA 00000001800253f8     mexOMPMask.obj
 0004:00001404       $pdata$?dtor$4@?0???$callFunction@N@@YAXQEAPEAUmxArray_tag@@QEAPEBU0@H@Z@4HA 0000000180025404     mexOMPMask.obj
 0004:00001410       $pdata$?dtor$0@?0???$construct@PEADAEAPEAD@?$allocator@D@std@@QEAAXPEAPEADAEAPEAD@Z@4HA 0000000180025410     mexOMPMask.obj
 0004:0000141c       $pdata$?dtor$0@?0???$coreORMP@M@@YAXAEAV?$Vector@M@@00AEAV?$Matrix@M@@1110AEBV?$AbstractMatrix@M@@AEAV?$Vector@_J@@0AEAMPEBMPEBH5PEAM@Z@4HA 000000018002541c     mexOMPMask.obj
 0004:00001428       $pdata$?dtor$1@?0???$coreORMP@M@@YAXAEAV?$Vector@M@@00AEAV?$Matrix@M@@1110AEBV?$AbstractMatrix@M@@AEAV?$Vector@_J@@0AEAMPEBMPEBH5PEAM@Z@4HA 0000000180025428     mexOMPMask.obj
 0004:00001434       $pdata$?dtor$0@?0???$coreORMP@N@@YAXAEAV?$Vector@N@@00AEAV?$Matrix@N@@1110AEBV?$AbstractMatrix@N@@AEAV?$Vector@_J@@0AEANPEBNPEBH5PEAN@Z@4HA 0000000180025434     mexOMPMask.obj
 0004:00001440       $pdata$?dtor$1@?0???$coreORMP@N@@YAXAEAV?$Vector@N@@00AEAV?$Matrix@N@@1110AEBV?$AbstractMatrix@N@@AEAV?$Vector@_J@@0AEANPEBNPEBH5PEAN@Z@4HA 0000000180025440     mexOMPMask.obj
 0004:0000144c       $pdata$?dtor$0@?0???$omp_mask@M@@YAXAEBV?$Matrix@M@@0AEAV?$SpMatrix@M@@AEBV?$Matrix@_N@@PEBHPEBM4_N55HPEAV0@@Z@4HA 000000018002544c     mexOMPMask.obj
 0004:00001458       $pdata$?dtor$1@?0???$omp_mask@M@@YAXAEBV?$Matrix@M@@0AEAV?$SpMatrix@M@@AEBV?$Matrix@_N@@PEBHPEBM4_N55HPEAV0@@Z@4HA 0000000180025458     mexOMPMask.obj
 0004:00001464       $pdata$?dtor$2@?0???$omp_mask@M@@YAXAEBV?$Matrix@M@@0AEAV?$SpMatrix@M@@AEBV?$Matrix@_N@@PEBHPEBM4_N55HPEAV0@@Z@4HA 0000000180025464     mexOMPMask.obj
 0004:00001470       $pdata$?dtor$3@?0???$omp_mask@M@@YAXAEBV?$Matrix@M@@0AEAV?$SpMatrix@M@@AEBV?$Matrix@_N@@PEBHPEBM4_N55HPEAV0@@Z@4HA 0000000180025470     mexOMPMask.obj
 0004:0000147c       $pdata$?dtor$4@?0???$omp_mask@M@@YAXAEBV?$Matrix@M@@0AEAV?$SpMatrix@M@@AEBV?$Matrix@_N@@PEBHPEBM4_N55HPEAV0@@Z@4HA 000000018002547c     mexOMPMask.obj
 0004:00001488       $pdata$?dtor$5@?0???$omp_mask@M@@YAXAEBV?$Matrix@M@@0AEAV?$SpMatrix@M@@AEBV?$Matrix@_N@@PEBHPEBM4_N55HPEAV0@@Z@4HA 0000000180025488     mexOMPMask.obj
 0004:00001494       $pdata$?dtor$6@?0???$omp_mask@M@@YAXAEBV?$Matrix@M@@0AEAV?$SpMatrix@M@@AEBV?$Matrix@_N@@PEBHPEBM4_N55HPEAV0@@Z@4HA 0000000180025494     mexOMPMask.obj
 0004:000014a0       $pdata$?dtor$7@?0???$omp_mask@M@@YAXAEBV?$Matrix@M@@0AEAV?$SpMatrix@M@@AEBV?$Matrix@_N@@PEBHPEBM4_N55HPEAV0@@Z@4HA 00000001800254a0     mexOMPMask.obj
 0004:000014ac       $pdata$?dtor$8@?0???$omp_mask@M@@YAXAEBV?$Matrix@M@@0AEAV?$SpMatrix@M@@AEBV?$Matrix@_N@@PEBHPEBM4_N55HPEAV0@@Z@4HA 00000001800254ac     mexOMPMask.obj
 0004:000014b8       $pdata$?dtor$9@?0???$omp_mask@M@@YAXAEBV?$Matrix@M@@0AEAV?$SpMatrix@M@@AEBV?$Matrix@_N@@PEBHPEBM4_N55HPEAV0@@Z@4HA 00000001800254b8     mexOMPMask.obj
 0004:000014c4       $pdata$?dtor$10@?0???$omp_mask@M@@YAXAEBV?$Matrix@M@@0AEAV?$SpMatrix@M@@AEBV?$Matrix@_N@@PEBHPEBM4_N55HPEAV0@@Z@4HA 00000001800254c4     mexOMPMask.obj
 0004:000014d0       $pdata$?dtor$11@?0???$omp_mask@M@@YAXAEBV?$Matrix@M@@0AEAV?$SpMatrix@M@@AEBV?$Matrix@_N@@PEBHPEBM4_N55HPEAV0@@Z@4HA 00000001800254d0     mexOMPMask.obj
 0004:000014dc       $pdata$?dtor$12@?0???$omp_mask@M@@YAXAEBV?$Matrix@M@@0AEAV?$SpMatrix@M@@AEBV?$Matrix@_N@@PEBHPEBM4_N55HPEAV0@@Z@4HA 00000001800254dc     mexOMPMask.obj
 0004:000014e8       $pdata$?dtor$13@?0???$omp_mask@M@@YAXAEBV?$Matrix@M@@0AEAV?$SpMatrix@M@@AEBV?$Matrix@_N@@PEBHPEBM4_N55HPEAV0@@Z@4HA 00000001800254e8     mexOMPMask.obj
 0004:000014f4       $pdata$?dtor$14@?0???$omp_mask@M@@YAXAEBV?$Matrix@M@@0AEAV?$SpMatrix@M@@AEBV?$Matrix@_N@@PEBHPEBM4_N55HPEAV0@@Z@4HA 00000001800254f4     mexOMPMask.obj
 0004:00001500       $pdata$?dtor$15@?0???$omp_mask@M@@YAXAEBV?$Matrix@M@@0AEAV?$SpMatrix@M@@AEBV?$Matrix@_N@@PEBHPEBM4_N55HPEAV0@@Z@4HA 0000000180025500     mexOMPMask.obj
 0004:0000150c       $pdata$?dtor$16@?0???$omp_mask@M@@YAXAEBV?$Matrix@M@@0AEAV?$SpMatrix@M@@AEBV?$Matrix@_N@@PEBHPEBM4_N55HPEAV0@@Z@4HA 000000018002550c     mexOMPMask.obj
 0004:00001518       $pdata$?dtor$17@?0???$omp_mask@M@@YAXAEBV?$Matrix@M@@0AEAV?$SpMatrix@M@@AEBV?$Matrix@_N@@PEBHPEBM4_N55HPEAV0@@Z@4HA 0000000180025518     mexOMPMask.obj
 0004:00001524       $pdata$?dtor$18@?0???$omp_mask@M@@YAXAEBV?$Matrix@M@@0AEAV?$SpMatrix@M@@AEBV?$Matrix@_N@@PEBHPEBM4_N55HPEAV0@@Z@4HA 0000000180025524     mexOMPMask.obj
 0004:00001530       $pdata$?dtor$0@?0???$omp_mask@N@@YAXAEBV?$Matrix@N@@0AEAV?$SpMatrix@N@@AEBV?$Matrix@_N@@PEBHPEBN4_N55HPEAV0@@Z@4HA 0000000180025530     mexOMPMask.obj
 0004:0000153c       $pdata$?dtor$1@?0???$omp_mask@N@@YAXAEBV?$Matrix@N@@0AEAV?$SpMatrix@N@@AEBV?$Matrix@_N@@PEBHPEBN4_N55HPEAV0@@Z@4HA 000000018002553c     mexOMPMask.obj
 0004:00001548       $pdata$?dtor$2@?0???$omp_mask@N@@YAXAEBV?$Matrix@N@@0AEAV?$SpMatrix@N@@AEBV?$Matrix@_N@@PEBHPEBN4_N55HPEAV0@@Z@4HA 0000000180025548     mexOMPMask.obj
 0004:00001554       $pdata$?dtor$3@?0???$omp_mask@N@@YAXAEBV?$Matrix@N@@0AEAV?$SpMatrix@N@@AEBV?$Matrix@_N@@PEBHPEBN4_N55HPEAV0@@Z@4HA 0000000180025554     mexOMPMask.obj
 0004:00001560       $pdata$?dtor$4@?0???$omp_mask@N@@YAXAEBV?$Matrix@N@@0AEAV?$SpMatrix@N@@AEBV?$Matrix@_N@@PEBHPEBN4_N55HPEAV0@@Z@4HA 0000000180025560     mexOMPMask.obj
 0004:0000156c       $pdata$?dtor$5@?0???$omp_mask@N@@YAXAEBV?$Matrix@N@@0AEAV?$SpMatrix@N@@AEBV?$Matrix@_N@@PEBHPEBN4_N55HPEAV0@@Z@4HA 000000018002556c     mexOMPMask.obj
 0004:00001578       $pdata$?dtor$6@?0???$omp_mask@N@@YAXAEBV?$Matrix@N@@0AEAV?$SpMatrix@N@@AEBV?$Matrix@_N@@PEBHPEBN4_N55HPEAV0@@Z@4HA 0000000180025578     mexOMPMask.obj
 0004:00001584       $pdata$?dtor$7@?0???$omp_mask@N@@YAXAEBV?$Matrix@N@@0AEAV?$SpMatrix@N@@AEBV?$Matrix@_N@@PEBHPEBN4_N55HPEAV0@@Z@4HA 0000000180025584     mexOMPMask.obj
 0004:00001590       $pdata$?dtor$8@?0???$omp_mask@N@@YAXAEBV?$Matrix@N@@0AEAV?$SpMatrix@N@@AEBV?$Matrix@_N@@PEBHPEBN4_N55HPEAV0@@Z@4HA 0000000180025590     mexOMPMask.obj
 0004:0000159c       $pdata$?dtor$9@?0???$omp_mask@N@@YAXAEBV?$Matrix@N@@0AEAV?$SpMatrix@N@@AEBV?$Matrix@_N@@PEBHPEBN4_N55HPEAV0@@Z@4HA 000000018002559c     mexOMPMask.obj
 0004:000015a8       $pdata$?dtor$10@?0???$omp_mask@N@@YAXAEBV?$Matrix@N@@0AEAV?$SpMatrix@N@@AEBV?$Matrix@_N@@PEBHPEBN4_N55HPEAV0@@Z@4HA 00000001800255a8     mexOMPMask.obj
 0004:000015b4       $pdata$?dtor$11@?0???$omp_mask@N@@YAXAEBV?$Matrix@N@@0AEAV?$SpMatrix@N@@AEBV?$Matrix@_N@@PEBHPEBN4_N55HPEAV0@@Z@4HA 00000001800255b4     mexOMPMask.obj
 0004:000015c0       $pdata$?dtor$12@?0???$omp_mask@N@@YAXAEBV?$Matrix@N@@0AEAV?$SpMatrix@N@@AEBV?$Matrix@_N@@PEBHPEBN4_N55HPEAV0@@Z@4HA 00000001800255c0     mexOMPMask.obj
 0004:000015cc       $pdata$?dtor$13@?0???$omp_mask@N@@YAXAEBV?$Matrix@N@@0AEAV?$SpMatrix@N@@AEBV?$Matrix@_N@@PEBHPEBN4_N55HPEAV0@@Z@4HA 00000001800255cc     mexOMPMask.obj
 0004:000015d8       $pdata$?dtor$14@?0???$omp_mask@N@@YAXAEBV?$Matrix@N@@0AEAV?$SpMatrix@N@@AEBV?$Matrix@_N@@PEBHPEBN4_N55HPEAV0@@Z@4HA 00000001800255d8     mexOMPMask.obj
 0004:000015e4       $pdata$?dtor$15@?0???$omp_mask@N@@YAXAEBV?$Matrix@N@@0AEAV?$SpMatrix@N@@AEBV?$Matrix@_N@@PEBHPEBN4_N55HPEAV0@@Z@4HA 00000001800255e4     mexOMPMask.obj
 0004:000015f0       $pdata$?dtor$16@?0???$omp_mask@N@@YAXAEBV?$Matrix@N@@0AEAV?$SpMatrix@N@@AEBV?$Matrix@_N@@PEBHPEBN4_N55HPEAV0@@Z@4HA 00000001800255f0     mexOMPMask.obj
 0004:000015fc       $pdata$?dtor$17@?0???$omp_mask@N@@YAXAEBV?$Matrix@N@@0AEAV?$SpMatrix@N@@AEBV?$Matrix@_N@@PEBHPEBN4_N55HPEAV0@@Z@4HA 00000001800255fc     mexOMPMask.obj
 0004:00001608       $pdata$?dtor$18@?0???$omp_mask@N@@YAXAEBV?$Matrix@N@@0AEAV?$SpMatrix@N@@AEBV?$Matrix@_N@@PEBHPEBN4_N55HPEAV0@@Z@4HA 0000000180025608     mexOMPMask.obj
 0004:00001614       $pdata$?dtor$0@?0???0?$Matrix@M@@QEAA@_J0@Z@4HA 0000000180025614     mexOMPMask.obj
 0004:00001620       $pdata$?dtor$1@?0???0?$Matrix@M@@QEAA@_J0@Z@4HA 0000000180025620     mexOMPMask.obj
 0004:0000162c       $pdata$?dtor$2@?0???0?$Matrix@M@@QEAA@_J0@Z@4HA 000000018002562c     mexOMPMask.obj
 0004:00001638       $pdata$?dtor$0@?0???0?$Matrix@N@@QEAA@_J0@Z@4HA 0000000180025638     mexOMPMask.obj
 0004:00001644       $pdata$?dtor$1@?0???0?$Matrix@N@@QEAA@_J0@Z@4HA 0000000180025644     mexOMPMask.obj
 0004:00001650       $pdata$?dtor$2@?0???0?$Matrix@N@@QEAA@_J0@Z@4HA 0000000180025650     mexOMPMask.obj
 0004:0000165c       $pdata$?dtor$0@?0???0?$Matrix@_J@@QEAA@_J0@Z@4HA 000000018002565c     mexOMPMask.obj
 0004:00001668       $pdata$?dtor$1@?0???0?$Matrix@_J@@QEAA@_J0@Z@4HA 0000000180025668     mexOMPMask.obj
 0004:00001674       $pdata$?dtor$2@?0???0?$Matrix@_J@@QEAA@_J0@Z@4HA 0000000180025674     mexOMPMask.obj
 0004:00001680       $pdata$?dtor$0@?0???0?$ProdMatrix@M@@QEAA@AEBV?$Matrix@M@@_N@Z@4HA 0000000180025680     mexOMPMask.obj
 0004:0000168c       $pdata$?dtor$1@?0???0?$ProdMatrix@M@@QEAA@AEBV?$Matrix@M@@_N@Z@4HA 000000018002568c     mexOMPMask.obj
 0004:00001698       $pdata$?dtor$0@?0???0?$ProdMatrix@N@@QEAA@AEBV?$Matrix@N@@_N@Z@4HA 0000000180025698     mexOMPMask.obj
 0004:000016a4       $pdata$?dtor$1@?0???0?$ProdMatrix@N@@QEAA@AEBV?$Matrix@N@@_N@Z@4HA 00000001800256a4     mexOMPMask.obj
 0004:000016b0       $pdata$?dtor$0@?0???0sentry@?$basic_ostream@DU?$char_traits@D@std@@@std@@QEAA@AEAV12@@Z@4HA 00000001800256b0     mexOMPMask.obj
 0004:000016bc       $pdata$?dtor$0@?0???1?$Matrix@M@@UEAA@XZ@4HA 00000001800256bc     mexOMPMask.obj
 0004:000016c8       $pdata$?dtor$1@?0???1?$Matrix@M@@UEAA@XZ@4HA 00000001800256c8     mexOMPMask.obj
 0004:000016d4       $pdata$?dtor$2@?0???1?$Matrix@M@@UEAA@XZ@4HA 00000001800256d4     mexOMPMask.obj
 0004:000016e0       $pdata$?dtor$0@?0???1?$Matrix@N@@UEAA@XZ@4HA 00000001800256e0     mexOMPMask.obj
 0004:000016ec       $pdata$?dtor$1@?0???1?$Matrix@N@@UEAA@XZ@4HA 00000001800256ec     mexOMPMask.obj
 0004:000016f8       $pdata$?dtor$2@?0???1?$Matrix@N@@UEAA@XZ@4HA 00000001800256f8     mexOMPMask.obj
 0004:00001704       $pdata$?dtor$0@?0???1?$Matrix@_J@@UEAA@XZ@4HA 0000000180025704     mexOMPMask.obj
 0004:00001710       $pdata$?dtor$1@?0???1?$Matrix@_J@@UEAA@XZ@4HA 0000000180025710     mexOMPMask.obj
 0004:0000171c       $pdata$?dtor$2@?0???1?$Matrix@_J@@UEAA@XZ@4HA 000000018002571c     mexOMPMask.obj
 0004:00001728       $pdata$?dtor$0@?0???1?$Matrix@_N@@UEAA@XZ@4HA 0000000180025728     mexOMPMask.obj
 0004:00001734       $pdata$?dtor$1@?0???1?$Matrix@_N@@UEAA@XZ@4HA 0000000180025734     mexOMPMask.obj
 0004:00001740       $pdata$?dtor$2@?0???1?$Matrix@_N@@UEAA@XZ@4HA 0000000180025740     mexOMPMask.obj
 0004:0000174c       $pdata$?dtor$0@?0???1?$ProdMatrix@M@@UEAA@XZ@4HA 000000018002574c     mexOMPMask.obj
 0004:00001758       $pdata$?dtor$0@?0???1?$ProdMatrix@N@@UEAA@XZ@4HA 0000000180025758     mexOMPMask.obj
 0004:00001764       $pdata$?dtor$0@?0???1?$SpMatrix@M@@UEAA@XZ@4HA 0000000180025764     mexOMPMask.obj
 0004:00001770       $pdata$?dtor$1@?0???1?$SpMatrix@M@@UEAA@XZ@4HA 0000000180025770     mexOMPMask.obj
 0004:0000177c       $pdata$?dtor$0@?0???1?$SpMatrix@N@@UEAA@XZ@4HA 000000018002577c     mexOMPMask.obj
 0004:00001788       $pdata$?dtor$1@?0???1?$SpMatrix@N@@UEAA@XZ@4HA 0000000180025788     mexOMPMask.obj
 0004:00001794       $pdata$?dtor$0@?0???R?$ProdMatrix@M@@UEBAM_J0@Z@4HA 0000000180025794     mexOMPMask.obj
 0004:000017a0       $pdata$?dtor$1@?0???R?$ProdMatrix@M@@UEBAM_J0@Z@4HA 00000001800257a0     mexOMPMask.obj
 0004:000017ac       $pdata$?dtor$0@?0???R?$ProdMatrix@N@@UEBAN_J0@Z@4HA 00000001800257ac     mexOMPMask.obj
 0004:000017b8       $pdata$?dtor$1@?0???R?$ProdMatrix@N@@UEBAN_J0@Z@4HA 00000001800257b8     mexOMPMask.obj
 0004:000017c4       $pdata$?dtor$0@?0??XtX@?$SpMatrix@M@@UEBAXAEAV?$Matrix@M@@@Z@4HA 00000001800257c4     mexOMPMask.obj
 0004:000017d0       $pdata$?dtor$1@?0??XtX@?$SpMatrix@M@@UEBAXAEAV?$Matrix@M@@@Z@4HA 00000001800257d0     mexOMPMask.obj
 0004:000017dc       $pdata$?dtor$0@?0??XtX@?$SpMatrix@N@@UEBAXAEAV?$Matrix@N@@@Z@4HA 00000001800257dc     mexOMPMask.obj
 0004:000017e8       $pdata$?dtor$1@?0??XtX@?$SpMatrix@N@@UEBAXAEAV?$Matrix@N@@@Z@4HA 00000001800257e8     mexOMPMask.obj
 0004:000017f4       $pdata$?catch$1@?0??_Copy@?$basic_string@DU?$char_traits@D@std@@V?$allocator@D@2@@std@@QEAAX_K0@Z@4HA 00000001800257f4     mexOMPMask.obj
 0004:00001800       $pdata$?catch$0@?0??_Copy@?$basic_string@DU?$char_traits@D@std@@V?$allocator@D@2@@std@@QEAAX_K0@Z@4HA 0000000180025800     mexOMPMask.obj
 0004:0000180c       $pdata$?dtor$0@?0??add_rawCol@?$ProdMatrix@M@@UEBAX_JPEAMM@Z@4HA 000000018002580c     mexOMPMask.obj
 0004:0000180c       $pdata$?dtor$0@?0??extract_rawCol@?$ProdMatrix@M@@UEBAX_JPEAM@Z@4HA 000000018002580c     mexOMPMask.obj
 0004:00001818       $pdata$?dtor$1@?0??add_rawCol@?$ProdMatrix@M@@UEBAX_JPEAMM@Z@4HA 0000000180025818     mexOMPMask.obj
 0004:00001818       $pdata$?dtor$1@?0??extract_rawCol@?$ProdMatrix@M@@UEBAX_JPEAM@Z@4HA 0000000180025818     mexOMPMask.obj
 0004:00001824       $pdata$?dtor$0@?0??extract_rawCol@?$ProdMatrix@N@@UEBAX_JPEAN@Z@4HA 0000000180025824     mexOMPMask.obj
 0004:00001824       $pdata$?dtor$0@?0??add_rawCol@?$ProdMatrix@N@@UEBAX_JPEANN@Z@4HA 0000000180025824     mexOMPMask.obj
 0004:00001830       $pdata$?dtor$1@?0??add_rawCol@?$ProdMatrix@N@@UEBAX_JPEANN@Z@4HA 0000000180025830     mexOMPMask.obj
 0004:00001830       $pdata$?dtor$1@?0??extract_rawCol@?$ProdMatrix@N@@UEBAX_JPEAN@Z@4HA 0000000180025830     mexOMPMask.obj
 0004:0000183c       $pdata$?dtor$0@?0??multTrans@?$Matrix@N@@QEBAXAEBV?$SpVector@N@@AEAV?$Vector@N@@NN@Z@4HA 000000018002583c     mexOMPMask.obj
 0004:0000183c       $pdata$?dtor$0@?0??rank1Update@?$Matrix@N@@QEAAXAEBV?$Vector@N@@AEBV?$SpVector@N@@N@Z@4HA 000000018002583c     mexOMPMask.obj
 0004:0000183c       $pdata$?dtor$0@?0??copyCol@?$ProdMatrix@N@@UEBAX_JAEAV?$Vector@N@@@Z@4HA 000000018002583c     mexOMPMask.obj
 0004:00001848       $pdata$?dtor$0@?0??diag@?$ProdMatrix@M@@UEBAXAEAV?$Vector@M@@@Z@4HA 0000000180025848     mexOMPMask.obj
 0004:00001854       $pdata$?dtor$1@?0??diag@?$ProdMatrix@M@@UEBAXAEAV?$Vector@M@@@Z@4HA 0000000180025854     mexOMPMask.obj
 0004:00001860       $pdata$?dtor$0@?0??diag@?$ProdMatrix@N@@UEBAXAEAV?$Vector@N@@@Z@4HA 0000000180025860     mexOMPMask.obj
 0004:0000186c       $pdata$?dtor$1@?0??diag@?$ProdMatrix@N@@UEBAXAEAV?$Vector@N@@@Z@4HA 000000018002586c     mexOMPMask.obj
 0004:00001878       $pdata$?dtor$0@?0??getGroup@?$SpMatrix@M@@UEBAXAEAV?$Matrix@M@@AEBV?$vector@V?$list@_JV?$allocator@_J@std@@@std@@V?$allocator@V?$list@_JV?$allocator@_J@std@@@std@@@2@@std@@_J@Z@4HA 0000000180025878     mexOMPMask.obj
 0004:00001884       $pdata$?dtor$0@?0??getGroup@?$SpMatrix@N@@UEBAXAEAV?$Matrix@N@@AEBV?$vector@V?$list@_JV?$allocator@_J@std@@@std@@V?$allocator@V?$list@_JV?$allocator@_J@std@@@std@@@2@@std@@_J@Z@4HA 0000000180025884     mexOMPMask.obj
 0004:00001890       $pdata$?dtor$0@?0??mult@?$Matrix@M@@UEBAXAEBV?$SpMatrix@M@@AEAV1@_N2MM@Z@4HA 0000000180025890     mexOMPMask.obj
 0004:0000189c       $pdata$?dtor$1@?0??mult@?$Matrix@M@@UEBAXAEBV?$SpMatrix@M@@AEAV1@_N2MM@Z@4HA 000000018002589c     mexOMPMask.obj
 0004:000018a8       $pdata$?dtor$2@?0??mult@?$Matrix@M@@UEBAXAEBV?$SpMatrix@M@@AEAV1@_N2MM@Z@4HA 00000001800258a8     mexOMPMask.obj
 0004:000018b4       $pdata$?dtor$3@?0??mult@?$Matrix@M@@UEBAXAEBV?$SpMatrix@M@@AEAV1@_N2MM@Z@4HA 00000001800258b4     mexOMPMask.obj
 0004:000018c0       $pdata$?dtor$4@?0??mult@?$Matrix@M@@UEBAXAEBV?$SpMatrix@M@@AEAV1@_N2MM@Z@4HA 00000001800258c0     mexOMPMask.obj
 0004:000018cc       $pdata$?dtor$5@?0??mult@?$Matrix@M@@UEBAXAEBV?$SpMatrix@M@@AEAV1@_N2MM@Z@4HA 00000001800258cc     mexOMPMask.obj
 0004:000018d8       $pdata$?dtor$6@?0??mult@?$Matrix@M@@UEBAXAEBV?$SpMatrix@M@@AEAV1@_N2MM@Z@4HA 00000001800258d8     mexOMPMask.obj
 0004:000018e4       $pdata$?dtor$7@?0??mult@?$Matrix@M@@UEBAXAEBV?$SpMatrix@M@@AEAV1@_N2MM@Z@4HA 00000001800258e4     mexOMPMask.obj
 0004:000018f0       $pdata$?dtor$0@?0??mult@?$Matrix@N@@UEBAXAEBV?$SpMatrix@N@@AEAV1@_N2NN@Z@4HA 00000001800258f0     mexOMPMask.obj
 0004:000018fc       $pdata$?dtor$1@?0??mult@?$Matrix@N@@UEBAXAEBV?$SpMatrix@N@@AEAV1@_N2NN@Z@4HA 00000001800258fc     mexOMPMask.obj
 0004:00001908       $pdata$?dtor$2@?0??mult@?$Matrix@N@@UEBAXAEBV?$SpMatrix@N@@AEAV1@_N2NN@Z@4HA 0000000180025908     mexOMPMask.obj
 0004:00001914       $pdata$?dtor$3@?0??mult@?$Matrix@N@@UEBAXAEBV?$SpMatrix@N@@AEAV1@_N2NN@Z@4HA 0000000180025914     mexOMPMask.obj
 0004:00001920       $pdata$?dtor$4@?0??mult@?$Matrix@N@@UEBAXAEBV?$SpMatrix@N@@AEAV1@_N2NN@Z@4HA 0000000180025920     mexOMPMask.obj
 0004:0000192c       $pdata$?dtor$5@?0??mult@?$Matrix@N@@UEBAXAEBV?$SpMatrix@N@@AEAV1@_N2NN@Z@4HA 000000018002592c     mexOMPMask.obj
 0004:00001938       $pdata$?dtor$6@?0??mult@?$Matrix@N@@UEBAXAEBV?$SpMatrix@N@@AEAV1@_N2NN@Z@4HA 0000000180025938     mexOMPMask.obj
 0004:00001944       $pdata$?dtor$7@?0??mult@?$Matrix@N@@UEBAXAEBV?$SpMatrix@N@@AEAV1@_N2NN@Z@4HA 0000000180025944     mexOMPMask.obj
 0004:00001950       $pdata$?dtor$0@?0??mult@?$Matrix@_J@@UEBAXAEBV?$SpMatrix@_J@@AEAV1@_N2_J3@Z@4HA 0000000180025950     mexOMPMask.obj
 0004:0000195c       $pdata$?dtor$1@?0??mult@?$Matrix@_J@@UEBAXAEBV?$SpMatrix@_J@@AEAV1@_N2_J3@Z@4HA 000000018002595c     mexOMPMask.obj
 0004:00001968       $pdata$?dtor$2@?0??mult@?$Matrix@_J@@UEBAXAEBV?$SpMatrix@_J@@AEAV1@_N2_J3@Z@4HA 0000000180025968     mexOMPMask.obj
 0004:00001974       $pdata$?dtor$3@?0??mult@?$Matrix@_J@@UEBAXAEBV?$SpMatrix@_J@@AEAV1@_N2_J3@Z@4HA 0000000180025974     mexOMPMask.obj
 0004:00001980       $pdata$?dtor$4@?0??mult@?$Matrix@_J@@UEBAXAEBV?$SpMatrix@_J@@AEAV1@_N2_J3@Z@4HA 0000000180025980     mexOMPMask.obj
 0004:0000198c       $pdata$?dtor$5@?0??mult@?$Matrix@_J@@UEBAXAEBV?$SpMatrix@_J@@AEAV1@_N2_J3@Z@4HA 000000018002598c     mexOMPMask.obj
 0004:00001998       $pdata$?dtor$6@?0??mult@?$Matrix@_J@@UEBAXAEBV?$SpMatrix@_J@@AEAV1@_N2_J3@Z@4HA 0000000180025998     mexOMPMask.obj
 0004:000019a4       $pdata$?dtor$7@?0??mult@?$Matrix@_J@@UEBAXAEBV?$SpMatrix@_J@@AEAV1@_N2_J3@Z@4HA 00000001800259a4     mexOMPMask.obj
 0004:000019b0       $pdata$?dtor$0@?0??mult@?$Matrix@_N@@UEBAXAEBV?$SpMatrix@_N@@AEAV1@_N222@Z@4HA 00000001800259b0     mexOMPMask.obj
 0004:000019bc       $pdata$?dtor$1@?0??mult@?$Matrix@_N@@UEBAXAEBV?$SpMatrix@_N@@AEAV1@_N222@Z@4HA 00000001800259bc     mexOMPMask.obj
 0004:000019c8       $pdata$?dtor$2@?0??mult@?$Matrix@_N@@UEBAXAEBV?$SpMatrix@_N@@AEAV1@_N222@Z@4HA 00000001800259c8     mexOMPMask.obj
 0004:000019d4       $pdata$?dtor$3@?0??mult@?$Matrix@_N@@UEBAXAEBV?$SpMatrix@_N@@AEAV1@_N222@Z@4HA 00000001800259d4     mexOMPMask.obj
 0004:000019e0       $pdata$?dtor$4@?0??mult@?$Matrix@_N@@UEBAXAEBV?$SpMatrix@_N@@AEAV1@_N222@Z@4HA 00000001800259e0     mexOMPMask.obj
 0004:000019ec       $pdata$?dtor$5@?0??mult@?$Matrix@_N@@UEBAXAEBV?$SpMatrix@_N@@AEAV1@_N222@Z@4HA 00000001800259ec     mexOMPMask.obj
 0004:000019f8       $pdata$?dtor$6@?0??mult@?$Matrix@_N@@UEBAXAEBV?$SpMatrix@_N@@AEAV1@_N222@Z@4HA 00000001800259f8     mexOMPMask.obj
 0004:00001a04       $pdata$?dtor$7@?0??mult@?$Matrix@_N@@UEBAXAEBV?$SpMatrix@_N@@AEAV1@_N222@Z@4HA 0000000180025a04     mexOMPMask.obj
 0004:00001a10       $pdata$?dtor$0@?0??mult@?$SpMatrix@M@@UEBAXAEBV1@AEAV?$Matrix@M@@_N2MM@Z@4HA 0000000180025a10     mexOMPMask.obj
 0004:00001a1c       $pdata$?dtor$1@?0??mult@?$SpMatrix@M@@UEBAXAEBV1@AEAV?$Matrix@M@@_N2MM@Z@4HA 0000000180025a1c     mexOMPMask.obj
 0004:00001a28       $pdata$?dtor$2@?0??mult@?$SpMatrix@M@@UEBAXAEBV1@AEAV?$Matrix@M@@_N2MM@Z@4HA 0000000180025a28     mexOMPMask.obj
 0004:00001a34       $pdata$?dtor$3@?0??mult@?$SpMatrix@M@@UEBAXAEBV1@AEAV?$Matrix@M@@_N2MM@Z@4HA 0000000180025a34     mexOMPMask.obj
 0004:00001a40       $pdata$?dtor$4@?0??mult@?$SpMatrix@M@@UEBAXAEBV1@AEAV?$Matrix@M@@_N2MM@Z@4HA 0000000180025a40     mexOMPMask.obj
 0004:00001a4c       $pdata$?dtor$5@?0??mult@?$SpMatrix@M@@UEBAXAEBV1@AEAV?$Matrix@M@@_N2MM@Z@4HA 0000000180025a4c     mexOMPMask.obj
 0004:00001a58       $pdata$?dtor$6@?0??mult@?$SpMatrix@M@@UEBAXAEBV1@AEAV?$Matrix@M@@_N2MM@Z@4HA 0000000180025a58     mexOMPMask.obj
 0004:00001a64       $pdata$?dtor$7@?0??mult@?$SpMatrix@M@@UEBAXAEBV1@AEAV?$Matrix@M@@_N2MM@Z@4HA 0000000180025a64     mexOMPMask.obj
 0004:00001a70       $pdata$?dtor$0@?0??mult@?$SpMatrix@M@@UEBAXAEBV?$Matrix@M@@AEAV2@_N2MM@Z@4HA 0000000180025a70     mexOMPMask.obj
 0004:00001a7c       $pdata$?dtor$1@?0??mult@?$SpMatrix@M@@UEBAXAEBV?$Matrix@M@@AEAV2@_N2MM@Z@4HA 0000000180025a7c     mexOMPMask.obj
 0004:00001a88       $pdata$?dtor$2@?0??mult@?$SpMatrix@M@@UEBAXAEBV?$Matrix@M@@AEAV2@_N2MM@Z@4HA 0000000180025a88     mexOMPMask.obj
 0004:00001a94       $pdata$?dtor$3@?0??mult@?$SpMatrix@M@@UEBAXAEBV?$Matrix@M@@AEAV2@_N2MM@Z@4HA 0000000180025a94     mexOMPMask.obj
 0004:00001aa0       $pdata$?dtor$4@?0??mult@?$SpMatrix@M@@UEBAXAEBV?$Matrix@M@@AEAV2@_N2MM@Z@4HA 0000000180025aa0     mexOMPMask.obj
 0004:00001aac       $pdata$?dtor$5@?0??mult@?$SpMatrix@M@@UEBAXAEBV?$Matrix@M@@AEAV2@_N2MM@Z@4HA 0000000180025aac     mexOMPMask.obj
 0004:00001ab8       $pdata$?dtor$6@?0??mult@?$SpMatrix@M@@UEBAXAEBV?$Matrix@M@@AEAV2@_N2MM@Z@4HA 0000000180025ab8     mexOMPMask.obj
 0004:00001ac4       $pdata$?dtor$7@?0??mult@?$SpMatrix@M@@UEBAXAEBV?$Matrix@M@@AEAV2@_N2MM@Z@4HA 0000000180025ac4     mexOMPMask.obj
 0004:00001ad0       $pdata$?dtor$0@?0??mult@?$SpMatrix@N@@UEBAXAEBV1@AEAV?$Matrix@N@@_N2NN@Z@4HA 0000000180025ad0     mexOMPMask.obj
 0004:00001adc       $pdata$?dtor$1@?0??mult@?$SpMatrix@N@@UEBAXAEBV1@AEAV?$Matrix@N@@_N2NN@Z@4HA 0000000180025adc     mexOMPMask.obj
 0004:00001ae8       $pdata$?dtor$2@?0??mult@?$SpMatrix@N@@UEBAXAEBV1@AEAV?$Matrix@N@@_N2NN@Z@4HA 0000000180025ae8     mexOMPMask.obj
 0004:00001af4       $pdata$?dtor$3@?0??mult@?$SpMatrix@N@@UEBAXAEBV1@AEAV?$Matrix@N@@_N2NN@Z@4HA 0000000180025af4     mexOMPMask.obj
 0004:00001b00       $pdata$?dtor$4@?0??mult@?$SpMatrix@N@@UEBAXAEBV1@AEAV?$Matrix@N@@_N2NN@Z@4HA 0000000180025b00     mexOMPMask.obj
 0004:00001b0c       $pdata$?dtor$5@?0??mult@?$SpMatrix@N@@UEBAXAEBV1@AEAV?$Matrix@N@@_N2NN@Z@4HA 0000000180025b0c     mexOMPMask.obj
 0004:00001b18       $pdata$?dtor$6@?0??mult@?$SpMatrix@N@@UEBAXAEBV1@AEAV?$Matrix@N@@_N2NN@Z@4HA 0000000180025b18     mexOMPMask.obj
 0004:00001b24       $pdata$?dtor$7@?0??mult@?$SpMatrix@N@@UEBAXAEBV1@AEAV?$Matrix@N@@_N2NN@Z@4HA 0000000180025b24     mexOMPMask.obj
 0004:00001b30       $pdata$?dtor$0@?0??mult@?$SpMatrix@N@@UEBAXAEBV?$Matrix@N@@AEAV2@_N2NN@Z@4HA 0000000180025b30     mexOMPMask.obj
 0004:00001b3c       $pdata$?dtor$1@?0??mult@?$SpMatrix@N@@UEBAXAEBV?$Matrix@N@@AEAV2@_N2NN@Z@4HA 0000000180025b3c     mexOMPMask.obj
 0004:00001b48       $pdata$?dtor$2@?0??mult@?$SpMatrix@N@@UEBAXAEBV?$Matrix@N@@AEAV2@_N2NN@Z@4HA 0000000180025b48     mexOMPMask.obj
 0004:00001b54       $pdata$?dtor$3@?0??mult@?$SpMatrix@N@@UEBAXAEBV?$Matrix@N@@AEAV2@_N2NN@Z@4HA 0000000180025b54     mexOMPMask.obj
 0004:00001b60       $pdata$?dtor$4@?0??mult@?$SpMatrix@N@@UEBAXAEBV?$Matrix@N@@AEAV2@_N2NN@Z@4HA 0000000180025b60     mexOMPMask.obj
 0004:00001b6c       $pdata$?dtor$5@?0??mult@?$SpMatrix@N@@UEBAXAEBV?$Matrix@N@@AEAV2@_N2NN@Z@4HA 0000000180025b6c     mexOMPMask.obj
 0004:00001b78       $pdata$?dtor$6@?0??mult@?$SpMatrix@N@@UEBAXAEBV?$Matrix@N@@AEAV2@_N2NN@Z@4HA 0000000180025b78     mexOMPMask.obj
 0004:00001b84       $pdata$?dtor$7@?0??mult@?$SpMatrix@N@@UEBAXAEBV?$Matrix@N@@AEAV2@_N2NN@Z@4HA 0000000180025b84     mexOMPMask.obj
 0004:00001b90       $pdata$?dtor$0@?0??multTrans@?$Matrix@_N@@QEBAXAEBV?$SpVector@_N@@AEAV?$Vector@_N@@_N2@Z@4HA 0000000180025b90     mexOMPMask.obj
 0004:00001b90       $pdata$?dtor$0@?0??rank1Update@?$Matrix@_N@@QEAAXAEBV?$Vector@_N@@AEBV?$SpVector@_N@@_N@Z@4HA 0000000180025b90     mexOMPMask.obj
 0004:00001b9c       $pdata$?dtor$0@?0??multTrans@?$SpMatrix@N@@QEBAXAEBV?$SpVector@N@@AEAV?$Vector@N@@NN@Z@4HA 0000000180025b9c     mexOMPMask.obj
 0004:00001b9c       $pdata$?dtor$0@?0??multTrans@?$SpMatrix@M@@QEBAXAEBV?$SpVector@M@@AEAV?$Vector@M@@MM@Z@4HA 0000000180025b9c     mexOMPMask.obj
 0004:00001b9c       $pdata$?dtor$0@?0??norm_2sq_cols@?$SpMatrix@N@@UEBAXAEAV?$Vector@N@@@Z@4HA 0000000180025b9c     mexOMPMask.obj
 0004:00001b9c       $pdata$?dtor$0@?0??norm_2sq_cols@?$SpMatrix@M@@UEBAXAEAV?$Vector@M@@@Z@4HA 0000000180025b9c     mexOMPMask.obj
 0004:00001ba8       $pdata$?dtor$0@?0??norm_2sq_cols@?$Matrix@M@@UEBAXAEAV?$Vector@M@@@Z@4HA 0000000180025ba8     mexOMPMask.obj
 0004:00001bb4       $pdata$?dtor$0@?0??norm_2sq_cols@?$Matrix@N@@UEBAXAEAV?$Vector@N@@@Z@4HA 0000000180025bb4     mexOMPMask.obj
 0004:00001bc0       $pdata$?dtor$0@?0??norm_2sq_cols@?$Matrix@_J@@UEBAXAEAV?$Vector@_J@@@Z@4HA 0000000180025bc0     mexOMPMask.obj
 0004:00001bcc       $pdata$?dtor$0@?0??norm_2sq_cols@?$Matrix@_N@@UEBAXAEAV?$Vector@_N@@@Z@4HA 0000000180025bcc     mexOMPMask.obj
 0004:00001bd8       $pdata$?dtor$0@?0??rank1Update@?$Matrix@M@@QEAAXAEBV?$Vector@M@@AEBV?$SpVector@M@@M@Z@4HA 0000000180025bd8     mexOMPMask.obj
 0004:00001bd8       $pdata$?dtor$0@?0??copyCol@?$ProdMatrix@M@@UEBAX_JAEAV?$Vector@M@@@Z@4HA 0000000180025bd8     mexOMPMask.obj
 0004:00001bd8       $pdata$?dtor$0@?0??multTrans@?$Matrix@M@@QEBAXAEBV?$SpVector@M@@AEAV?$Vector@M@@MM@Z@4HA 0000000180025bd8     mexOMPMask.obj
 0004:00001be4       $pdata$?dtor$0@?0??multTrans@?$Matrix@_J@@QEBAXAEBV?$SpVector@_J@@AEAV?$Vector@_J@@_J2@Z@4HA 0000000180025be4     mexOMPMask.obj
 0004:00001be4       $pdata$?dtor$0@?0??rank1Update@?$Matrix@_J@@QEAAXAEBV?$Vector@_J@@AEBV?$SpVector@_J@@_J@Z@4HA 0000000180025be4     mexOMPMask.obj
 0004:00001bf0       $pdata$?fin$0@?0???_L@YAXPEAX_KHP6AX0@Z2@Z@4HA 0000000180025bf0     MSVCRT:ehvecctr.obj
 0004:00001bfc       $pdata$?fin$0@?0???_M@YAXPEAX_KHP6AX0@Z@Z@4HA 0000000180025bfc     MSVCRT:ehvecdtr.obj
 0004:00001c08       $pdata$?filt$0@?0??__ArrayUnwind@@YAXPEAX_KHP6AX0@Z@Z@4HA 0000000180025c08     MSVCRT:ehvecdtr.obj
 0004:00001c14       $pdata$_onexit$fin$0       0000000180025c14     MSVCRT:atonexit.obj
 0004:00001c20       $pdata$__DllMainCRTStartup$filt$0 0000000180025c20     MSVCRT:crtdll.obj
 0004:00001c2c       $pdata$__DllMainCRTStartup$fin$1 0000000180025c2c     MSVCRT:crtdll.obj
 0004:00001c38       $pdata$_IsNonwritableInCurrentImage$filt$0 0000000180025c38     MSVCRT:pesect.obj
 0004:00001c44       $pdata$??__E?_Generic_object@?$_Error_objects@H@std@@2V_Generic_error_category@2@A@@YAXXZ 0000000180025c44     mexOMPMask.obj
 0004:00001c50       $pdata$??__E?_Iostream_object@?$_Error_objects@H@std@@2V_Iostream_error_category@2@A@@YAXXZ 0000000180025c50     mexOMPMask.obj
 0004:00001c5c       $pdata$??__E?_System_object@?$_Error_objects@H@std@@2V_System_error_category@2@A@@YAXXZ 0000000180025c5c     mexOMPMask.obj
 0004:00001c68       $pdata$??__E?id@?$num_put@DV?$back_insert_iterator@V?$basic_string@DU?$char_traits@D@std@@V?$allocator@D@2@@std@@@std@@@std@@2V0locale@2@A@@YAXXZ 0000000180025c68     mexOMPMask.obj
 0004:00001c74       $pdata$??__E?id@?$num_put@_WV?$back_insert_iterator@V?$basic_string@_WU?$char_traits@_W@std@@V?$allocator@_W@2@@std@@@std@@@std@@2V0locale@2@A@@YAXXZ 0000000180025c74     mexOMPMask.obj
 0004:00001c80       $pdata$??__Eallocator_arg@std@@YAXXZ 0000000180025c80     mexOMPMask.obj
 0004:00001c8c       $pdata$??__Epiecewise_construct@std@@YAXXZ 0000000180025c8c     mexOMPMask.obj
 0004:00001c98       $pdata$??__F?_Generic_object@?$_Error_objects@H@std@@2V_Generic_error_category@2@A@@YAXXZ 0000000180025c98     mexOMPMask.obj
 0004:00001ca4       $pdata$??__F?_Iostream_object@?$_Error_objects@H@std@@2V_Iostream_error_category@2@A@@YAXXZ 0000000180025ca4     mexOMPMask.obj
 0004:00001cb0       $pdata$??__F?_System_object@?$_Error_objects@H@std@@2V_System_error_category@2@A@@YAXXZ 0000000180025cb0     mexOMPMask.obj
